
build/a.out:     file format elf32-i386

Contents of section .text:
 c0001500 8d4c2404 83e4f0ff 71fc5589 e55351e8  .L$.....q.U..SQ.
 c0001510 fb000000 81c3ec3a 000083ec 0c8d8310  .......:........
 c0001520 e3ffff50 e8590100 0083c410 e84b0e00  ...P.Y.......K..
 c0001530 00e8a809 0000e80f 15000083 ec046a1f  ..............j.
 c0001540 8d8321e3 ffff508d 83a5c5ff ff50e885  ..!...P......P..
 c0001550 15000083 c41083ec 0cc7c0c8 5100c050  ............Q..P
 c0001560 e8491d00 0083c410 e8270a00 0083ec0c  .I.......'......
 c0001570 c7c0c851 00c050e8 df1b0000 83c41083  ...Q..P.........
 c0001580 ec0c8d83 23e3ffff 50e8f400 000083c4  ....#...P.......
 c0001590 1083ec0c c7c0c851 00c050e8 721c0000  .......Q..P.r...
 c00015a0 83c410eb c85589e5 5383ec04 e85e0000  .....U..S....^..
 c00015b0 0081c34f 3a000083 ec0cc7c0 c85100c0  ...O:........Q..
 c00015c0 50e8951b 000083c4 1083ec0c ff7508e8  P............u..
 c00015d0 ae000000 83c41083 ec0cc7c0 c85100c0  .............Q..
 c00015e0 50e82c1c 000083c4 10ebcc55 89e55383  P.,........U..S.
 c00015f0 ec04e818 00000081 c3093a00 00fa83ec  ..........:.....
 c0001600 0cff7508 e8790000 0083c410 fbebee8b  ..u..y..........
 c0001610 1c24c366 90669066 90669066 90669090  .$.f.f.f.f.f.f..
 c0001620 00000000 00000000 006089e5 8b4524bb  .........`...E$.
 c0001630 271600c0 b9080000 0089c283 e20f83fa  '...............
 c0001640 097f0583 c230eb08 83ea0a83 c261eb00  .....0.......a..
 c0001650 88134bc1 e804e2e1 bb201600 c0b90700  ..K...... ......
 c0001660 0000ba00 0000008a 033c3075 044342e2  .........<0u.CB.
 c0001670 f681c220 1600c052 e8050000 0083c404  ... ...R........
 c0001680 61c36089 e58b5d24 31c08a03 3c00740c  a.`...]$1...<.t.
 c0001690 50e80800 000083c4 0443ebec 61c366b8  P........C..a.f.
 c00016a0 18008ee8 608b4c24 2483f90a 740c83f9  ....`.L$$...t...
 c00016b0 0d740783 f908742e eb45e876 00000066  .t....t..E.v...f
 c00016c0 31d26689 d866be50 0066f7f6 6629d366  1.f..f.P.f..f).f
 c00016d0 83c350e8 7d000000 6681fbd0 077c05e8  ..P.}...f....|..
 c00016e0 8e000000 eb4de84a 00000083 eb01d1e3  .....M.J........
 c00016f0 6566c703 2000d1eb e8580000 00eb34e8  ef.. ....X....4.
 c0001700 31000000 6681fbd0 077c05e8 62000000  1...f....|..b...
 c0001710 e8200000 008b4c24 2466d1e3 6567880f  . ....L$$f..eg..
 c0001720 66436567 c6070766 d1eb6643 e8240000  fCeg...f..fC.$..
 c0001730 00eb0061 c366bad4 03b00eee 66bad503  ...a.f......f...
 c0001740 ec88c466 bad403b0 0fee66ba d503ec31  ...f......f....1
 c0001750 db6689c3 c366bad4 03b00eee 66bad503  .f...f......f...
 c0001760 88f8ee66 bad403b0 0fee66ba d50388d8  ...f......f.....
 c0001770 eec3bea0 800bc0bf 00800bc0 b9c00300  ................
 c0001780 00f3a5b9 50000000 bb000f00 006566c7  ....P........ef.
 c0001790 03200083 c302e2f5 bb800700 00e8b3ff  . ..............
 c00017a0 ffffc366 90669066 90669066 90669090  ...f.f.f.f.f.f..
 c00017b0 6a001e06 0fa00fa8 60b020e6 a0e6206a  j.......`. ... j
 c00017c0 00ff1500 5200c083 c404610f a90fa107  ....R.....a.....
 c00017d0 1f83c404 cf6a001e 060fa00f a860b020  .....j.......`. 
 c00017e0 e6a0e620 6a01ff15 045200c0 83c40461  ... j....R.....a
 c00017f0 0fa90fa1 071f83c4 04cf6a00 1e060fa0  ..........j.....
 c0001800 0fa860b0 20e6a0e6 206a02ff 15085200  ..`. ... j....R.
 c0001810 c083c404 610fa90f a1071f83 c404cf6a  ....a..........j
 c0001820 001e060f a00fa860 b020e6a0 e6206a03  .......`. ... j.
 c0001830 ff150c52 00c083c4 04610fa9 0fa1071f  ...R.....a......
 c0001840 83c404cf 6a001e06 0fa00fa8 60b020e6  ....j.......`. .
 c0001850 a0e6206a 04ff1510 5200c083 c404610f  .. j....R.....a.
 c0001860 a90fa107 1f83c404 cf6a001e 060fa00f  .........j......
 c0001870 a860b020 e6a0e620 6a05ff15 145200c0  .`. ... j....R..
 c0001880 83c40461 0fa90fa1 071f83c4 04cf6a00  ...a..........j.
 c0001890 1e060fa0 0fa860b0 20e6a0e6 206a06ff  ......`. ... j..
 c00018a0 15185200 c083c404 610fa90f a1071f83  ..R.....a.......
 c00018b0 c404cf6a 001e060f a00fa860 b020e6a0  ...j.......`. ..
 c00018c0 e6206a07 ff151c52 00c083c4 04610fa9  . j....R.....a..
 c00018d0 0fa1071f 83c404cf 901e060f a00fa860  ...............`
 c00018e0 b020e6a0 e6206a08 ff152052 00c083c4  . ... j... R....
 c00018f0 04610fa9 0fa1071f 83c404cf 6a001e06  .a..........j...
 c0001900 0fa00fa8 60b020e6 a0e6206a 09ff1524  ....`. ... j...$
 c0001910 5200c083 c404610f a90fa107 1f83c404  R.....a.........
 c0001920 cf901e06 0fa00fa8 60b020e6 a0e6206a  ........`. ... j
 c0001930 0aff1528 5200c083 c404610f a90fa107  ...(R.....a.....
 c0001940 1f83c404 cf901e06 0fa00fa8 60b020e6  ............`. .
 c0001950 a0e6206a 0bff152c 5200c083 c404610f  .. j...,R.....a.
 c0001960 a90fa107 1f83c404 cf901e06 0fa00fa8  ................
 c0001970 60b020e6 a0e6206a 0cff1530 5200c083  `. ... j...0R...
 c0001980 c404610f a90fa107 1f83c404 cf901e06  ..a.............
 c0001990 0fa00fa8 60b020e6 a0e6206a 0dff1534  ....`. ... j...4
 c00019a0 5200c083 c404610f a90fa107 1f83c404  R.....a.........
 c00019b0 cf901e06 0fa00fa8 60b020e6 a0e6206a  ........`. ... j
 c00019c0 0eff1538 5200c083 c404610f a90fa107  ...8R.....a.....
 c00019d0 1f83c404 cf6a001e 060fa00f a860b020  .....j.......`. 
 c00019e0 e6a0e620 6a0fff15 3c5200c0 83c40461  ... j...<R.....a
 c00019f0 0fa90fa1 071f83c4 04cf6a00 1e060fa0  ..........j.....
 c0001a00 0fa860b0 20e6a0e6 206a10ff 15405200  ..`. ... j...@R.
 c0001a10 c083c404 610fa90f a1071f83 c404cf90  ....a...........
 c0001a20 1e060fa0 0fa860b0 20e6a0e6 206a11ff  ......`. ... j..
 c0001a30 15445200 c083c404 610fa90f a1071f83  .DR.....a.......
 c0001a40 c404cf6a 001e060f a00fa860 b020e6a0  ...j.......`. ..
 c0001a50 e6206a12 ff154852 00c083c4 04610fa9  . j...HR.....a..
 c0001a60 0fa1071f 83c404cf 6a001e06 0fa00fa8  ........j.......
 c0001a70 60b020e6 a0e6206a 13ff154c 5200c083  `. ... j...LR...
 c0001a80 c404610f a90fa107 1f83c404 cf6a001e  ..a..........j..
 c0001a90 060fa00f a860b020 e6a0e620 6a14ff15  .....`. ... j...
 c0001aa0 505200c0 83c40461 0fa90fa1 071f83c4  PR.....a........
 c0001ab0 04cf6a00 1e060fa0 0fa860b0 20e6a0e6  ..j.......`. ...
 c0001ac0 206a15ff 15545200 c083c404 610fa90f   j...TR.....a...
 c0001ad0 a1071f83 c404cf6a 001e060f a00fa860  .......j.......`
 c0001ae0 b020e6a0 e6206a16 ff155852 00c083c4  . ... j...XR....
 c0001af0 04610fa9 0fa1071f 83c404cf 6a001e06  .a..........j...
 c0001b00 0fa00fa8 60b020e6 a0e6206a 17ff155c  ....`. ... j...\
 c0001b10 5200c083 c404610f a90fa107 1f83c404  R.....a.........
 c0001b20 cf6a001e 060fa00f a860b020 e6a0e620  .j.......`. ... 
 c0001b30 6a18ff15 605200c0 83c40461 0fa90fa1  j...`R.....a....
 c0001b40 071f83c4 04cf6a00 1e060fa0 0fa860b0  ......j.......`.
 c0001b50 20e6a0e6 206a19ff 15645200 c083c404   ... j...dR.....
 c0001b60 610fa90f a1071f83 c404cf6a 001e060f  a..........j....
 c0001b70 a00fa860 b020e6a0 e6206a1a ff156852  ...`. ... j...hR
 c0001b80 00c083c4 04610fa9 0fa1071f 83c404cf  .....a..........
 c0001b90 6a001e06 0fa00fa8 60b020e6 a0e6206a  j.......`. ... j
 c0001ba0 1bff156c 5200c083 c404610f a90fa107  ...lR.....a.....
 c0001bb0 1f83c404 cf6a001e 060fa00f a860b020  .....j.......`. 
 c0001bc0 e6a0e620 6a1cff15 705200c0 83c40461  ... j...pR.....a
 c0001bd0 0fa90fa1 071f83c4 04cf6a00 1e060fa0  ..........j.....
 c0001be0 0fa860b0 20e6a0e6 206a1dff 15745200  ..`. ... j...tR.
 c0001bf0 c083c404 610fa90f a1071f83 c404cf6a  ....a..........j
 c0001c00 001e060f a00fa860 b020e6a0 e6206a1e  .......`. ... j.
 c0001c10 ff157852 00c083c4 04610fa9 0fa1071f  ..xR.....a......
 c0001c20 83c404cf 6a001e06 0fa00fa8 60b020e6  ....j.......`. .
 c0001c30 a0e6206a 1fff157c 5200c083 c404610f  .. j...|R.....a.
 c0001c40 a90fa107 1f83c404 cf6a001e 060fa00f  .........j......
 c0001c50 a860b020 e6a0e620 6a20ff15 805200c0  .`. ... j ...R..
 c0001c60 83c40461 0fa90fa1 071f83c4 04cf5589  ...a..........U.
 c0001c70 e583ec08 e8570300 00058733 00008b55  .....W.....3...U
 c0001c80 088b450c 8855fc66 8945f80f b645fc0f  ..E..U.f.E...E..
 c0001c90 b755f8ee 90c9c355 89e5e831 03000005  .U.....U...1....
 c0001ca0 61330000 6a206a11 e8c1ffff ff83c408  a3..j j.........
 c0001cb0 6a216a20 e8b5ffff ff83c408 6a216a04  j!j ........j!j.
 c0001cc0 e8a9ffff ff83c408 6a216a01 e89dffff  ........j!j.....
 c0001cd0 ff83c408 68a00000 006a11e8 8effffff  ....h....j......
 c0001ce0 83c40868 a1000000 6a28e87f ffffff83  ...h....j(......
 c0001cf0 c40868a1 0000006a 02e870ff ffff83c4  ..h....j..p.....
 c0001d00 0868a100 00006a01 e861ffff ff83c408  .h....j..a......
 c0001d10 6a2168fe 000000e8 52ffffff 83c40868  j!h.....R......h
 c0001d20 a1000000 68ff0000 00e840ff ffff83c4  ....h.....@.....
 c0001d30 0890c9c3 5589e583 ec10e891 02000005  ....U...........
 c0001d40 c1320000 c745fc00 000000eb 5cc7c223  .2...E......\..#
 c0001d50 5000c08b 4dfc8b14 8a89d18b 55fc6689  P...M.......U.f.
 c0001d60 8cd0c000 00008b55 fc66c784 d0c20000  .......U.f......
 c0001d70 0008008b 55fcc684 d0c40000 00008b55  ....U..........U
 c0001d80 fcc684d0 c5000000 8ec7c223 5000c08b  ...........#P...
 c0001d90 4dfc8b14 8ac1ea10 89d18b55 fc66898c  M..........U.f..
 c0001da0 d0c60000 008345fc 01837dfc 207e9e90  ......E...}. ~..
 c0001db0 c9c35589 e5565383 ec10e815 02000081  ..U..VS.........
 c0001dc0 c6413200 00b90000 000089cb e884f9ff  .A2.............
 c0001dd0 ffc745f4 00000000 eb1383ec 0c6a2089  ..E..........j .
 c0001de0 f3e8b8f8 ffff83c4 108345f4 01817df4  ..........E...}.
 c0001df0 3f010000 76e483ec 0c8d8628 e3ffff50  ?...v......(...P
 c0001e00 89f3e87b f8ffff83 c41083ec 0c8d864f  ...{...........O
 c0001e10 e3ffff50 89f3e867 f8ffff83 c41083ec  ...P...g........
 c0001e20 0cff7508 89f3e8fe f7ffff83 c41083ec  ..u.............
 c0001e30 0c8d865b e3ffff50 89f3e843 f8ffff83  ...[...P...C....
 c0001e40 c41083ec 0c8d8668 e3ffff50 89f3e82f  .......h...P.../
 c0001e50 f8ffff83 c410ebfe 5589e553 83ec10e8  ........U..S....
 c0001e60 6c010000 059c3100 00c745f8 00000000  l.....1...E.....
 c0001e70 eb16c7c2 005200c0 8b4df88d 98b2cdff  .....R...M......
 c0001e80 ff891c8a 8345f801 837df820 7ee4c7c2  .....E...}. ~...
 c0001e90 005200c0 c7c0c72b 00c08982 80000000  .R.....+........
 c0001ea0 9083c410 5b5dc355 89e5e821 01000005  ....[].U...!....
 c0001eb0 51310000 6a436a34 e8b1fdff ff83c408  Q1..jCj4........
 c0001ec0 6a40689b 000000e8 a2fdffff 83c4086a  j@h............j
 c0001ed0 406a2ee8 96fdffff 83c40890 c9c35589  @j............U.
 c0001ee0 e55383ec 14e825f7 ffff81c3 16310000  .S....%......1..
 c0001ef0 c7c0e051 00c0c700 00000000 e896fdff  ...Q............
 c0001f00 ffe82efe ffffe84d ffffff8d 83c00000  .......M........
 c0001f10 0089c1bb 00000000 89c889da 0fa4c210  ................
 c0001f20 c1e01005 07010000 83d20089 45f08955  ............E..U
 c0001f30 f40f015d f0e86dff ffff9083 c4145b5d  ...]..m.......[]
 c0001f40 c35589e5 83ec10e8 84000000 05b43000  .U............0.
 c0001f50 009c5889 45fc8b45 fc250002 000085c0  ..X.E..E.%......
 c0001f60 7507b801 000000eb 05b80000 0000c9c3  u...............
 c0001f70 5589e583 ec08e855 00000005 85300000  U......U.....0..
 c0001f80 837d0800 7507e809 000000eb 05e82000  .}..u......... .
 c0001f90 0000c9c3 5589e583 ec10e831 00000005  ....U......1....
 c0001fa0 61300000 e898ffff ff8945fc fb8b45fc  a0........E...E.
 c0001fb0 c9c35589 e583ec10 e8130000 00054330  ..U...........C0
 c0001fc0 0000e87a ffffff89 45fcfa8b 45fcc9c3  ...z....E...E...
 c0001fd0 8b0424c3 8b3424c3 5589e553 83ec04e8  ..$..4$.U..S....
 c0001fe0 2bf6ffff 81c31c30 0000e8c3 ffffff83  +......0........
 c0001ff0 ec0c8d83 8fe3ffff 50e884f6 ffff83c4  ........P.......
 c0002000 1083ec0c ff7508e8 76f6ffff 83c41083  .....u..v.......
 c0002010 ec0c8d83 9fe3ffff 50e864f6 ffff83c4  ........P.d.....
 c0002020 1083ec0c ff750ce8 fdf5ffff 83c41083  .....u..........
 c0002030 ec0c8d83 a9e3ffff 50e844f6 ffff83c4  ........P.D.....
 c0002040 1083ec0c ff7510e8 36f6ffff 83c41083  .....u..6.......
 c0002050 ec0c8d83 a9e3ffff 50e824f6 ffff83c4  ........P.$.....
 c0002060 10ebfe55 89e55383 ec14e861 ffffff05  ...U..S....a....
 c0002070 912f0000 837d0800 751d83ec 048d90ab  ./...}..u.......
 c0002080 e3ffff52 6a068d90 b3e3ffff 5289c3e8  ...Rj.......R...
 c0002090 44ffffff 83c4108b 45088945 f4c745f0  D.......E..E..E.
 c00020a0 00000000 eb118b55 f48b45f0 01d08b55  .......U..E....U
 c00020b0 0c881083 45f0018b 45f03b45 1072e78b  ....E...E.;E.r..
 c00020c0 45088b5d fcc9c355 89e55383 ec14e8fd  E..]...U..S.....
 c00020d0 feffff05 2d2f0000 837d0800 7406837d  ....-/...}..t..}
 c00020e0 0c00751d 83ec048d 90c0e3ff ff526a13  ..u..........Rj.
 c00020f0 8d90b3e3 ffff5289 c3e8dafe ffff83c4  ......R.........
 c0002100 108b4508 8945f08b 450c8945 f4c745ec  ..E..E..E..E..E.
 c0002110 00000000 eb198b55 f48b45ec 01d08b4d  .......U..E....M
 c0002120 f08b55ec 01ca0fb6 00880283 45ec018b  ..U.........E...
 c0002130 45ec3b45 1072df8b 45088b5d fcc9c355  E.;E.r..E..]...U
 c0002140 89e55383 ec14e885 feffff05 b52e0000  ..S.............
 c0002150 837d0800 7406837d 0c00751d 83ec048d  .}..t..}..u.....
 c0002160 90d9e3ff ff526a20 8d90b3e3 ffff5289  .....Rj ......R.
 c0002170 c3e862fe ffff83c4 108b4508 8945f08b  ..b.......E..E..
 c0002180 450c8945 f4c745ec 00000000 eb428b55  E..E..E......B.U
 c0002190 f08b45ec 01d00fb6 108b4df4 8b45ec01  ..E.......M..E..
 c00021a0 c80fb600 38c27506 8345ec01 eb228b55  ....8.u..E...".U
 c00021b0 f08b45ec 01d00fb6 000fb6d0 8b4df48b  ..E..........M..
 c00021c0 45ec01c8 0fb6000f b6c029c2 89d0eb0d  E.........).....
 c00021d0 8b45ec3b 451072b6 b8000000 008b5dfc  .E.;E.r.......].
 c00021e0 c9c35589 e55383ec 10e8e2fd ffff0512  ..U..S..........
 c00021f0 2e00008b 450c8d50 0785c00f 48c2c1f8  ....E..P....H...
 c0002200 038945f8 8b45088b 108b45f8 01d00fb6  ..E..E....E.....
 c0002210 188b450c 99c1ea1d 01d083e0 0729d0ba  ..E..........)..
 c0002220 01000000 89c1d3e2 89d089c1 8b45088b  .............E..
 c0002230 108b45f8 01d009cb 89da8810 9083c410  ..E.............
 c0002240 5b5dc355 89e55383 ec10e881 fdffff05  [].U..S.........
 c0002250 b12d0000 8b450c8d 500785c0 0f48c2c1  .-...E..P....H..
 c0002260 f8038945 f88b4508 8b108b45 f801d00f  ...E..E....E....
 c0002270 b6188b45 0c99c1ea 1d01d083 e00729d0  ...E..........).
 c0002280 ba010000 0089c1d3 e289d0f7 d089c18b  ................
 c0002290 45088b10 8b45f801 d021cb89 da881090  E....E...!......
 c00022a0 83c4105b 5dc35589 e55383ec 10e81efd  ...[].U..S......
 c00022b0 ffff054e 2d00008b 450c8d50 0785c00f  ...N-...E..P....
 c00022c0 48c2c1f8 038945f8 8b45088b 108b45f8  H.....E..E....E.
 c00022d0 01d00fb6 000fbed8 8b450c99 c1ea1d01  .........E......
 c00022e0 d083e007 29d089c1 d3fb89d8 83e00185  ....)...........
 c00022f0 c07407b8 01000000 eb05b800 00000083  .t..............
 c0002300 c4105b5d c35589e5 83ec10e8 c0fcffff  ..[].U..........
 c0002310 05f02c00 00c745f8 00000000 c745fc00  ..,...E......E..
 c0002320 000000eb 24ff75fc ff7508e8 76ffffff  ....$.u..u..v...
 c0002330 83c40883 f8017509 c745f800 000000eb  ......u..E......
 c0002340 048345f8 018345fc 018b45f8 3b450c73  ..E...E...E.;E.s
 c0002350 148b4508 8b40048d 14c50000 00008b45  ..E..@.........E
 c0002360 fc39c277 c08b45f8 3b450c75 088b45fc  .9.w..E.;E.u..E.
 c0002370 2b450ceb 05b8ffff ffffc9c3 5589e553  +E..........U..S
 c0002380 83ec14e8 87f2ffff 81c3782c 000083ec  ..........x,....
 c0002390 04680040 00006a00 6800a009 c0e8c1fc  .h.@..j.h.......
 c00023a0 ffff83c4 10b8000b 00008b00 05000010  ................
 c00023b0 008945ec 817dec00 00000876 07c745ec  ..E..}.....v..E.
 c00023c0 00000008 8b45ec2d 00002000 d1e88945  .....E.-.. ....E
 c00023d0 f08b45ec 2b45f02d 00002000 8945f4c7  ..E.+E.-.. ..E..
 c00023e0 c0ac5200 c0c70000 a009c08b 45f0c1e8  ..R.........E...
 c00023f0 0f89c2c7 c0ac5200 c0895004 c7c0ac52  ......R...P....R
 c0002400 00c0c740 08000020 00c7c0ac 5200c08b  ...@... ....R...
 c0002410 55f08950 0cc7c0ac 5200c0c7 40100000  U..P....R...@...
 c0002420 0000c7c0 ac5200c0 8b40042d 0060f63f  .....R...@.-.`.?
 c0002430 89c2c7c0 845200c0 89108b45 f4c1e80f  .....R.....E....
 c0002440 89c2c7c0 845200c0 8950048b 45f00500  .....R...P..E...
 c0002450 00200089 c2c7c084 5200c089 5008c7c0  . ......R...P...
 c0002460 845200c0 8b55f489 500cc7c0 845200c0  .R...U..P....R..
 c0002470 c7401000 000000c7 c0ac5200 c08b5004  .@........R...P.
 c0002480 c7c08452 00c08b40 0401d08d 9000a009  ...R...@........
 c0002490 c0c7c098 5200c089 10c7c0ac 5200c08b  ....R.......R...
 c00024a0 5004c7c0 985200c0 895004c7 c0985200  P....R...P....R.
 c00024b0 c0c74008 000010c0 c7c09852 00c0c740  ..@........R...@
 c00024c0 0c000000 00c7c098 5200c0c7 40100100  ........R...@...
 c00024d0 0000e89a 02000090 8b5dfcc9 c35589e5  .........]...U..
 c00024e0 83ec18e8 e8faffff 05182b00 0083ec08  ..........+.....
 c00024f0 ff750cff 7508e869 00000083 c4108945  .u..u..i.......E
 c0002500 f08b45f0 8945e883 7de80075 07b80000  ..E..E..}..u....
 c0002510 0000eb4e c745ec00 000000eb 3a83ec0c  ...N.E......:...
 c0002520 ff7508e8 c0000000 83c41089 45f4837d  .u..........E..}
 c0002530 f4007507 b8000000 00eb2783 ec08ff75  ..u.......'....u
 c0002540 f4ff75e8 e81d0100 0083c410 8145e800  ..u..........E..
 c0002550 10000083 45ec018b 45ec3b45 0c72be8b  ....E...E.;E.r..
 c0002560 45f0c9c3 5589e553 83ec10e8 9ff0ffff  E...U..S........
 c0002570 81c3902a 0000837d 08007562 ff750cc7  ...*...}..ub.u..
 c0002580 c0985200 c050e87a fdffff83 c4088945  ..R..P.z.......E
 c0002590 f8837df8 ff7507b8 00000000 eb45c745  ..}..u.......E.E
 c00025a0 f4000000 00eb1c8b 55f88b45 f401d050  ........U..E...P
 c00025b0 c7c09852 00c050e8 26fcffff 83c40883  ...R..P.&.......
 c00025c0 45f4018b 45f43b45 0c72dcc7 c0985200  E...E.;E.r....R.
 c00025d0 c08b4008 8b55f8c1 e20c01d0 eb05b800  ..@..U..........
 c00025e0 0000008b 5dfcc9c3 5589e583 ec10e8dd  ....]...U.......
 c00025f0 f9ffff05 0d2a0000 837d0800 7508c7c2  .....*...}..u...
 c0002600 ac5200c0 eb06c7c2 845200c0 8955f483  .R.......R...U..
 c0002610 7d080075 0bc7c0ac 5200c08b 4008eb09  }..u....R...@...
 c0002620 c7c08452 00c08b40 088945f8 6a01ff75  ...R...@..E.j..u
 c0002630 f4e8cffc ffff83c4 088945fc 837dfcff  ..........E..}..
 c0002640 7507b800 000000eb 1bff75fc ff75f4e8  u.........u..u..
 c0002650 8efbffff 83c4088b 45fcc1e0 0c89c28b  ........E.......
 c0002660 45f801d0 c9c35589 e55383ec 14e89def  E.....U..S......
 c0002670 ffff81c3 8e290000 83ec0cff 7508e892  .....)......u...
 c0002680 00000083 c4108945 ec83ec0c ff7508e8  .......E.....u..
 c0002690 a7000000 83c41089 45f08b45 ec8b0083  ........E..E....
 c00026a0 e00185c0 755c83ec 0c6a00e8 38ffffff  ....u\...j..8...
 c00026b0 83c41089 45f4837d f400751e 83ec048d  ....E..}..u.....
 c00026c0 83f0e3ff ff5068ab 0000008d 83ffe3ff  .....Ph.........
 c00026d0 ff50e801 f9ffff83 c4108b45 f483c803  .P.........E....
 c00026e0 89c28b45 ec89108b 45f02500 f0ffff83  ...E....E.%.....
 c00026f0 ec046800 1000006a 0050e864 f9ffff83  ..h....j.P.d....
 c0002700 c4108b45 0c83c803 89c28b45 f0891090  ...E.......E....
 c0002710 8b5dfcc9 c35589e5 83ec10e8 b0f8ffff  .]...U..........
 c0002720 05e02800 008b4508 8945fc8b 45fcc1e8  ..(...E..E..E...
 c0002730 16c1e002 0d00f0ff ffc9c355 89e583ec  ...........U....
 c0002740 10e88af8 ffff05ba 2800008b 45088945  ........(...E..E
 c0002750 fc8b45fc c1e816c1 e00c89c2 8b45fcc1  ..E..........E..
 c0002760 e00ac1e8 16c1e002 09d00d00 00c0ffc9  ................
 c0002770 c35589e5 5383ec04 e892eeff ff81c383  .U..S...........
 c0002780 28000083 ec0c8d83 08e4ffff 50e8f0ee  (...........P...
 c0002790 ffff83c4 1083ec0c 8d8327e4 ffff50e8  ..........'...P.
 c00027a0 deeeffff 83c410c7 c0ac5200 c08b0083  ..........R.....
 c00027b0 ec0c50e8 71eeffff 83c41083 ec0c8d83  ..P.q...........
 c00027c0 34e4ffff 50e8b8ee ffff83c4 10c7c0ac  4...P...........
 c00027d0 5200c08b 400483ec 0c50e84a eeffff83  R...@....P.J....
 c00027e0 c41083ec 0c8d833b e4ffff50 e891eeff  .......;...P....
 c00027f0 ff83c410 c7c0ac52 00c08b40 0883ec0c  .......R...@....
 c0002800 50e823ee ffff83c4 1083ec0c 8d8359e4  P.#...........Y.
 c0002810 ffff50e8 6aeeffff 83c410c7 c0ac5200  ..P.j.........R.
 c0002820 c08b5008 c7c0ac52 00c08b40 0c01d083  ..P....R...@....
 c0002830 ec0c50e8 f1edffff 83c41083 ec0c8d83  ..P.............
 c0002840 5ee4ffff 50e838ee ffff83c4 1083ec0c  ^...P.8.........
 c0002850 8d8360e4 ffff50e8 26eeffff 83c410c7  ..`...P.&.......
 c0002860 c0845200 c08b0083 ec0c50e8 b9edffff  ..R.......P.....
 c0002870 83c41083 ec0c8d83 34e4ffff 50e800ee  ........4...P...
 c0002880 ffff83c4 10c7c084 5200c08b 400483ec  ........R...@...
 c0002890 0c50e892 edffff83 c41083ec 0c8d833b  .P.............;
 c00028a0 e4ffff50 e8d9edff ff83c410 c7c08452  ...P...........R
 c00028b0 00c08b40 0883ec0c 50e86bed ffff83c4  ...@....P.k.....
 c00028c0 1083ec0c 8d8359e4 ffff50e8 b2edffff  ......Y...P.....
 c00028d0 83c410c7 c0845200 c08b5008 c7c08452  ......R...P....R
 c00028e0 00c08b40 0c01d083 ec0c50e8 39edffff  ...@......P.9...
 c00028f0 83c41083 ec0c8d83 5ee4ffff 50e880ed  ........^...P...
 c0002900 ffff83c4 1083ec0c 8d836de4 ffff50e8  ..........m...P.
 c0002910 6eedffff 83c410c7 c0985200 c08b0083  n.........R.....
 c0002920 ec0c50e8 01edffff 83c41083 ec0c8d83  ..P.............
 c0002930 34e4ffff 50e848ed ffff83c4 10c7c098  4...P.H.........
 c0002940 5200c08b 400483ec 0c50e8da ecffff83  R...@....P......
 c0002950 c41083ec 0c8d837c e4ffff50 e821edff  .......|...P.!..
 c0002960 ff83c410 c7c09852 00c08b40 0883ec0c  .......R...@....
 c0002970 50e8b3ec ffff83c4 1083ec0c 8d835ee4  P.............^.
 c0002980 ffff50e8 faecffff 83c41090 8b5dfcc9  ..P..........]..
 c0002990 c35589e5 e837f6ff ff056726 00008b45  .U...7....g&...E
 c00029a0 088b5508 8950048b 45088b50 048b4508  ..U..P..E..P..E.
 c00029b0 8910905d c35589e5 e813f6ff ff054326  ...].U........C&
 c00029c0 00008b45 108b5508 8950048b 45088b55  ...E..U..P..E..U
 c00029d0 1089108b 45088b55 0c895004 8b450c8b  ....E..U..P..E..
 c00029e0 55088910 905dc355 89e5e8e1 f5ffff05  U....].U........
 c00029f0 11260000 8b450c8b 55088950 048b4508  .&...E..U..P..E.
 c0002a00 8b550c89 10905dc3 5589e5e8 c0f5ffff  .U....].U.......
 c0002a10 05f02500 008b450c 8b4004ff 750c50ff  ..%...E..@..u.P.
 c0002a20 7508e88e ffffff83 c40c90c9 c35589e5  u............U..
 c0002a30 e89bf5ff ff05cb25 00008b45 088b0039  .......%...E...9
 c0002a40 45080f94 c00fb6c0 5dc35589 e55383ec  E.......].U..S..
 c0002a50 10e8b9eb ffff81c3 aa250000 c7c0c052  .........%.....R
 c0002a60 00c050e8 29ffffff 83c404c7 c0c85200  ..P.).........R.
 c0002a70 c050e81a ffffff83 c404c745 f800e009  .P.........E....
 c0002a80 c08b45f8 c7400400 0000008b 45f883c0  ..E..@......E...
 c0002a90 10c7c2c8 5200c052 c7c2c852 00c05250  ....R..R...R..RP
 c0002aa0 e810ffff ff83c40c 8b45f8c7 40181f00  .........E..@...
 c0002ab0 00008b45 f88b5018 8b45f889 501c8b45  ...E..P..E..P..E
 c0002ac0 f8c74020 00000000 8b45f8c7 4024b3df  ..@ .....E..@$..
 c0002ad0 3001908b 5dfcc9c3 5589e553 83ec14e8  0...]...U..S....
 c0002ae0 2bebffff 81c31c25 000083ec 086a016a  +......%.....j.j
 c0002af0 00e8e7f9 ffff83c4 108945f0 837df000  ..........E..}..
 c0002b00 750ab800 000000e9 b6000000 8b45f08d  u............E..
 c0002b10 90001000 008b45f0 89108b45 f0c74004  ......E....E..@.
 c0002b20 01000000 8b45f083 c00883ec 08c7c2c0  .....E..........
 c0002b30 5200c052 50e8cefe ffff83c4 108b45f0  R..RP.........E.
 c0002b40 83c01083 ec08c7c2 c85200c0 5250e8b5  .........R..RP..
 c0002b50 feffff83 c4108b45 f08b5510 8950188b  .......E..U..P..
 c0002b60 45f08b50 188b45f0 89501c8b 45f0c740  E..P..E..P..E..@
 c0002b70 20000000 008b45f0 c74024b3 df30018b   .....E..@$..0..
 c0002b80 45f08b00 8d50b48b 45f08910 8b45f08b  E....P..E....E..
 c0002b90 008d50e0 8b45f089 108b45f0 8b008945  ..P..E....E....E
 c0002ba0 f48b45f4 8d9354dd ffff8950 108b45f4  ..E...T....P..E.
 c0002bb0 8b550889 50188b45 f48b550c 89501c8b  .U..P..E..U..P..
 c0002bc0 45f08b5d fcc9c355 89e55383 ec14e83c  E..]...U..S....<
 c0002bd0 eaffff81 c32d2400 00c7c0e0 5100c08b  .....-$.....Q...
 c0002be0 008d5001 c7c0e051 00c08910 e8440100  ..P....Q.....D..
 c0002bf0 008945f0 8b45f08b 40243db3 df300174  ..E..E..@$=..0.t
 c0002c00 1b83ec04 8d83a0e4 ffff506a 528d83c4  ..........PjR...
 c0002c10 e4ffff50 e8bff3ff ff83c410 8b45f08b  ...P.........E..
 c0002c20 40208d50 018b45f0 8950208b 45f08b50  @ .P..E..P .E..P
 c0002c30 208b45f0 8b401c39 c20f85b8 000000e8   .E..@.9........
 c0002c40 b8000000 8945f483 7df4000f 84a50000  .....E..}.......
 c0002c50 008b45f0 c7400401 0000008b 45f083c0  ..E..@......E...
 c0002c60 0883ec08 50c7c0c0 5200c050 e8240100  ....P...R..P.$..
 c0002c70 0083c410 85c0741b 83ec048d 83d0e4ff  ......t.........
 c0002c80 ff506a5b 8d83c4e4 ffff50e8 48f3ffff  .Pj[......P.H...
 c0002c90 83c4108b 45f083c0 0883ec08 c7c2c052  ....E..........R
 c0002ca0 00c05250 e85ffdff ff83c410 8b45f0c7  ..RP._.......E..
 c0002cb0 40200000 00008b45 f4c74004 00000000  @ .....E..@.....
 c0002cc0 8b45f48b 50088b45 f48b400c 83ec0852  .E..P..E..@....R
 c0002cd0 50e811fd ffff83c4 108b45f4 c7402000  P.........E..@ .
 c0002ce0 00000083 ec08ff75 f4ff75f0 e88f0000  .......u..u.....
 c0002cf0 0083c410 eb01908b 5dfcc9c3 5589e553  ........]...U..S
 c0002d00 e80ae9ff ff81c3fb 220000c7 c0c05200  ........".....R.
 c0002d10 c050e816 fdffff83 c40485c0 7407b800  .P..........t...
 c0002d20 000000eb 0bc7c0c0 5200c08b 0083e808  ........R.......
 c0002d30 8b5dfcc9 c35589e5 83ec10e8 90f2ffff  .]...U..........
 c0002d40 05c02200 0089e089 45fc8b45 fc2500f0  ..".....E..E.%..
 c0002d50 ffffc9c3 5589e553 83ec04e8 70f2ffff  ....U..S....p...
 c0002d60 05a02200 0089c3e8 28f2ffff 83ec0cff  ..".....(.......
 c0002d70 750c8b45 08ffd083 c410908b 5dfcc9c3  u..E........]...
 c0002d80 56575355 8b442414 89208b44 24188b20  VWSU.D$.. .D$.. 
 c0002d90 5d5b5f5e c35589e5 83ec10e8 30f2ffff  ][_^.U......0...
 c0002da0 05602200 008b4508 8b008945 fceb158b  .`"...E....E....
 c0002db0 45fc3b45 0c75058b 450ceb15 8b45fc8b  E.;E.u..E....E..
 c0002dc0 008945fc 8b45fc3b 450875e3 b8000000  ..E..E.;E.u.....
 c0002dd0 00c9c355 89e5e8f5 f1ffff05 25220000  ...U........%"..
 c0002de0 8b45088b 55088950 048b4508 8b50048b  .E..U..P..E..P..
 c0002df0 45088910 905dc355 89e5e8d1 f1ffff05  E....].U........
 c0002e00 01220000 8b45108b 55088950 048b4508  ."...E..U..P..E.
 c0002e10 8b551089 108b4508 8b550c89 50048b45  .U....E..U..P..E
 c0002e20 0c8b5508 8910905d c35589e5 e89ff1ff  ..U....].U......
 c0002e30 ff05cf21 00008b45 0c8b5508 8950048b  ...!...E..U..P..
 c0002e40 45088b55 0c891090 5dc35589 e5e87ef1  E..U....].U...~.
 c0002e50 ffff05ae 2100008b 450c8b40 04ff750c  ....!...E..@..u.
 c0002e60 50ff7508 e88effff ff83c40c 90c9c355  P.u............U
 c0002e70 89e5e859 f1ffff05 89210000 8b45088b  ...Y.....!...E..
 c0002e80 00394508 0f94c00f b6c05dc3 5589e553  .9E.......].U..S
 c0002e90 83ec14e8 77e7ffff 81c36821 0000e80f  ....w.....h!....
 c0002ea0 f1ffff89 45f0e88a feffff89 45f4eb26  ....E.......E..&
 c0002eb0 8b45088d 50048b45 f483c008 83ec0852  .E..P..E.......R
 c0002ec0 50e884ff ffff83c4 1083ec0c 6a04e806  P...........j...
 c0002ed0 01000083 c4108b45 088b0085 c074d18b  .......E.....t..
 c0002ee0 45088b00 85c07f1b 83ec048d 83f8e4ff  E...............
 c0002ef0 ff506a10 8d8306e5 ffff50e8 d8f0ffff  .Pj.......P.....
 c0002f00 83c4108b 45088b00 8d50ff8b 45088910  ....E....P..E...
 c0002f10 83ec0cff 75f0e855 f0ffff83 c410908b  ....u..U........
 c0002f20 5dfcc9c3 5589e553 83ec14e8 dfe6ffff  ]...U..S........
 c0002f30 81c3d020 0000e877 f0ffff89 45f08b45  ... ...w....E..E
 c0002f40 088b008d 50018b45 0889108b 450883c0  ....P..E....E...
 c0002f50 0483ec0c 50e815ff ffff83c4 1085c075  ....P..........u
 c0002f60 648b4508 83c00483 ec0c50e8 fffeffff  d.E.......P.....
 c0002f70 83c41085 c0741b83 ec048d83 10e5ffff  .....t..........
 c0002f80 506a1a8d 8306e5ff ff50e849 f0ffff83  Pj.......P.I....
 c0002f90 c4108b45 088b4004 83e80889 45f48b45  ...E..@.....E..E
 c0002fa0 f48b5008 8b45f48b 400c83ec 085250e8  ..P..E..@....RP.
 c0002fb0 75feffff 83c41083 ec0cff75 f4e8cb00  u..........u....
 c0002fc0 000083c4 1083ec0c ff75f0e8 a0efffff  .........u......
 c0002fd0 83c41090 8b5dfcc9 c35589e5 5383ec14  .....]...U..S...
 c0002fe0 e82ae6ff ff81c31b 20000083 7d080474  .*...... ...}..t
 c0002ff0 27837d08 03742183 7d080274 1b83ec04  '.}..t!.}..t....
 c0003000 8d8338e5 ffff506a 248d8306 e5ffff50  ..8...Pj$......P
 c0003010 e8c3efff ff83c410 e895efff ff8945ec  ..............E.
 c0003020 e810fdff ff8945f0 8b45f08b 55088950  ......E..E..U..P
 c0003030 04e8c6fc ffff8945 f48b45f4 c7400400  .......E..E..@..
 c0003040 0000008b 45f48b50 088b45f4 8b400c83  ....E..P..E..@..
 c0003050 ec085250 e8d0fdff ff83c410 8b45f4c7  ..RP.........E..
 c0003060 40200000 00006083 ec08ff75 f4ff75f0  @ ....`....u..u.
 c0003070 e80bfdff ff83c410 6183ec0c ff75ece8  ........a....u..
 c0003080 eceeffff 83c41090 8b5dfcc9 c35589e5  .........]...U..
 c0003090 5383ec14 e876e5ff ff81c367 1f00008b  S....v.....g....
 c00030a0 45088b40 0483f804 74318b45 088b4004  E..@....t1.E..@.
 c00030b0 83f80374 268b4508 8b400483 f802741b  ...t&.E..@....t.
 c00030c0 83ec048d 836ce5ff ff506a38 8d8306e5  .....l...Pj8....
 c00030d0 ffff50e8 00efffff 83c410e8 d2eeffff  ..P.............
 c00030e0 8945f48b 4508c740 04010000 008b4508  .E..E..@......E.
 c00030f0 83c00883 ec0850c7 c0c05200 c050e892  ......P...R..P..
 c0003100 fcffff83 c41085c0 741b83ec 048d83a8  ........t.......
 c0003110 e5ffff50 6a3b8d83 06e5ffff 50e8b6ee  ...Pj;......P...
 c0003120 ffff83c4 10c7c0c0 5200c08b 008b5508  ........R.....U.
 c0003130 83c20883 ec0450c7 c0c05200 c05052e8  ......P...R..PR.
 c0003140 b3fcffff 83c41083 ec0cff75 f4e81eee  ...........u....
 c0003150 ffff83c4 10908b5d fcc9c355 89e55383  .......]...U..S.
 c0003160 ec14e8a8 e4ffff81 c3991e00 00e840ee  ..............@.
 c0003170 ffff8945 f08b4508 8b400c85 c0740a8b  ...E..E..@...t..
 c0003180 45088b40 1085c07f 2f8b4508 8b400c85  E..@..../.E..@..
 c0003190 c0750a8b 45088b40 1085c074 1b83ec04  .u..E..@...t....
 c00031a0 8d83d4e5 ffff506a 4b8d8306 e5ffff50  ......PjK......P
 c00031b0 e823eeff ff83c410 e878fbff ff8945f4  .#.......x....E.
 c00031c0 8b45088b 400c3945 f475118b 45088b40  .E..@.9E.u..E..@
 c00031d0 108d5001 8b450889 5010eb22 8b450883  ..P..E..P..".E..
 c00031e0 ec0c50e8 a4fcffff 83c4108b 45088b55  ..P.........E..U
 c00031f0 f489500c 8b4508c7 40100100 000083ec  ..P..E..@.......
 c0003200 0cff75f0 e867edff ff83c410 908b5dfc  ..u..g........].
 c0003210 c9c35589 e55383ec 14e8f1e3 ffff81c3  ..U..S..........
 c0003220 e21d0000 e889edff ff8945f4 8b45088b  ..........E..E..
 c0003230 400c85c0 740a8b45 088b4010 85c07f1b  @...t..E..@.....
 c0003240 83ec048d 8320e6ff ff506a5b 8d8306e5  ..... ...Pj[....
 c0003250 ffff50e8 80edffff 83c4108b 45088b40  ..P.........E..@
 c0003260 1083f801 7e118b45 088b4010 8d50ff8b  ....~..E..@..P..
 c0003270 45088950 10eb238b 450883ec 0c50e8a1  E..P..#.E....P..
 c0003280 fcffff83 c4108b45 08c7400c 00000000  .......E..@.....
 c0003290 8b4508c7 40100000 000083ec 0cff75f4  .E..@.........u.
 c00032a0 e8cbecff ff83c410 908b5dfc c9c35589  ..........]...U.
 c00032b0 e583ec08 e817edff ff05471d 00008b45  ..........G....E
 c00032c0 0883ec08 6a0150e8 1a000000 83c4108b  ....j.P.........
 c00032d0 4508c740 0c000000 008b4508 c7401000  E..@......E..@..
 c00032e0 00000090 c9c35589 e5e8e2ec ffff0512  ......U.........
 c00032f0 1d00008b 45088b55 0c89108b 450883c0  ....E..U....E...
 c0003300 0450e8cc faffff83 c40490c9 c3        .P...........   

Disassembly of section .text:

c0001500 <main>:
c0001500:	8d 4c 24 04          	lea    0x4(%esp),%ecx
c0001504:	83 e4 f0             	and    $0xfffffff0,%esp
c0001507:	ff 71 fc             	pushl  -0x4(%ecx)
c000150a:	55                   	push   %ebp
c000150b:	89 e5                	mov    %esp,%ebp
c000150d:	53                   	push   %ebx
c000150e:	51                   	push   %ecx
c000150f:	e8 fb 00 00 00       	call   c000160f <__x86.get_pc_thunk.bx>
c0001514:	81 c3 ec 3a 00 00    	add    $0x3aec,%ebx
c000151a:	83 ec 0c             	sub    $0xc,%esp
c000151d:	8d 83 10 e3 ff ff    	lea    -0x1cf0(%ebx),%eax
c0001523:	50                   	push   %eax
c0001524:	e8 59 01 00 00       	call   c0001682 <put_str>
c0001529:	83 c4 10             	add    $0x10,%esp
c000152c:	e8 4b 0e 00 00       	call   c000237c <init_pool>
c0001531:	e8 a8 09 00 00       	call   c0001ede <init_interrupt>
c0001536:	e8 0f 15 00 00       	call   c0002a4a <make_main_thread>
c000153b:	83 ec 04             	sub    $0x4,%esp
c000153e:	6a 1f                	push   $0x1f
c0001540:	8d 83 21 e3 ff ff    	lea    -0x1cdf(%ebx),%eax
c0001546:	50                   	push   %eax
c0001547:	8d 83 a5 c5 ff ff    	lea    -0x3a5b(%ebx),%eax
c000154d:	50                   	push   %eax
c000154e:	e8 85 15 00 00       	call   c0002ad8 <start_thread>
c0001553:	83 c4 10             	add    $0x10,%esp
c0001556:	83 ec 0c             	sub    $0xc,%esp
c0001559:	c7 c0 c8 51 00 c0    	mov    $0xc00051c8,%eax
c000155f:	50                   	push   %eax
c0001560:	e8 49 1d 00 00       	call   c00032ae <init_lock>
c0001565:	83 c4 10             	add    $0x10,%esp
c0001568:	e8 27 0a 00 00       	call   c0001f94 <enable_intr>
c000156d:	83 ec 0c             	sub    $0xc,%esp
c0001570:	c7 c0 c8 51 00 c0    	mov    $0xc00051c8,%eax
c0001576:	50                   	push   %eax
c0001577:	e8 df 1b 00 00       	call   c000315b <lock>
c000157c:	83 c4 10             	add    $0x10,%esp
c000157f:	83 ec 0c             	sub    $0xc,%esp
c0001582:	8d 83 23 e3 ff ff    	lea    -0x1cdd(%ebx),%eax
c0001588:	50                   	push   %eax
c0001589:	e8 f4 00 00 00       	call   c0001682 <put_str>
c000158e:	83 c4 10             	add    $0x10,%esp
c0001591:	83 ec 0c             	sub    $0xc,%esp
c0001594:	c7 c0 c8 51 00 c0    	mov    $0xc00051c8,%eax
c000159a:	50                   	push   %eax
c000159b:	e8 72 1c 00 00       	call   c0003212 <unlock>
c00015a0:	83 c4 10             	add    $0x10,%esp
c00015a3:	eb c8                	jmp    c000156d <main+0x6d>

c00015a5 <f>:
c00015a5:	55                   	push   %ebp
c00015a6:	89 e5                	mov    %esp,%ebp
c00015a8:	53                   	push   %ebx
c00015a9:	83 ec 04             	sub    $0x4,%esp
c00015ac:	e8 5e 00 00 00       	call   c000160f <__x86.get_pc_thunk.bx>
c00015b1:	81 c3 4f 3a 00 00    	add    $0x3a4f,%ebx
c00015b7:	83 ec 0c             	sub    $0xc,%esp
c00015ba:	c7 c0 c8 51 00 c0    	mov    $0xc00051c8,%eax
c00015c0:	50                   	push   %eax
c00015c1:	e8 95 1b 00 00       	call   c000315b <lock>
c00015c6:	83 c4 10             	add    $0x10,%esp
c00015c9:	83 ec 0c             	sub    $0xc,%esp
c00015cc:	ff 75 08             	pushl  0x8(%ebp)
c00015cf:	e8 ae 00 00 00       	call   c0001682 <put_str>
c00015d4:	83 c4 10             	add    $0x10,%esp
c00015d7:	83 ec 0c             	sub    $0xc,%esp
c00015da:	c7 c0 c8 51 00 c0    	mov    $0xc00051c8,%eax
c00015e0:	50                   	push   %eax
c00015e1:	e8 2c 1c 00 00       	call   c0003212 <unlock>
c00015e6:	83 c4 10             	add    $0x10,%esp
c00015e9:	eb cc                	jmp    c00015b7 <f+0x12>

c00015eb <f2>:
c00015eb:	55                   	push   %ebp
c00015ec:	89 e5                	mov    %esp,%ebp
c00015ee:	53                   	push   %ebx
c00015ef:	83 ec 04             	sub    $0x4,%esp
c00015f2:	e8 18 00 00 00       	call   c000160f <__x86.get_pc_thunk.bx>
c00015f7:	81 c3 09 3a 00 00    	add    $0x3a09,%ebx
c00015fd:	fa                   	cli    
c00015fe:	83 ec 0c             	sub    $0xc,%esp
c0001601:	ff 75 08             	pushl  0x8(%ebp)
c0001604:	e8 79 00 00 00       	call   c0001682 <put_str>
c0001609:	83 c4 10             	add    $0x10,%esp
c000160c:	fb                   	sti    
c000160d:	eb ee                	jmp    c00015fd <f2+0x12>

c000160f <__x86.get_pc_thunk.bx>:
c000160f:	8b 1c 24             	mov    (%esp),%ebx
c0001612:	c3                   	ret    
c0001613:	66 90                	xchg   %ax,%ax
c0001615:	66 90                	xchg   %ax,%ax
c0001617:	66 90                	xchg   %ax,%ax
c0001619:	66 90                	xchg   %ax,%ax
c000161b:	66 90                	xchg   %ax,%ax
c000161d:	66 90                	xchg   %ax,%ax
c000161f:	90                   	nop

c0001620 <str_buffer_in_put_int>:
	...

c0001629 <put_int>:
c0001629:	60                   	pusha  
c000162a:	89 e5                	mov    %esp,%ebp
c000162c:	8b 45 24             	mov    0x24(%ebp),%eax
c000162f:	bb 27 16 00 c0       	mov    $0xc0001627,%ebx
c0001634:	b9 08 00 00 00       	mov    $0x8,%ecx

c0001639 <loop_in_put_int>:
c0001639:	89 c2                	mov    %eax,%edx
c000163b:	83 e2 0f             	and    $0xf,%edx
c000163e:	83 fa 09             	cmp    $0x9,%edx
c0001641:	7f 05                	jg     c0001648 <cur_hex_is_a2f>
c0001643:	83 c2 30             	add    $0x30,%edx
c0001646:	eb 08                	jmp    c0001650 <cur_loop_end_in_put_int>

c0001648 <cur_hex_is_a2f>:
c0001648:	83 ea 0a             	sub    $0xa,%edx
c000164b:	83 c2 61             	add    $0x61,%edx
c000164e:	eb 00                	jmp    c0001650 <cur_loop_end_in_put_int>

c0001650 <cur_loop_end_in_put_int>:
c0001650:	88 13                	mov    %dl,(%ebx)
c0001652:	4b                   	dec    %ebx
c0001653:	c1 e8 04             	shr    $0x4,%eax
c0001656:	e2 e1                	loop   c0001639 <loop_in_put_int>
c0001658:	bb 20 16 00 c0       	mov    $0xc0001620,%ebx
c000165d:	b9 07 00 00 00       	mov    $0x7,%ecx
c0001662:	ba 00 00 00 00       	mov    $0x0,%edx

c0001667 <loop2_in_put_int>:
c0001667:	8a 03                	mov    (%ebx),%al
c0001669:	3c 30                	cmp    $0x30,%al
c000166b:	75 04                	jne    c0001671 <loop2_end_in_put_int>
c000166d:	43                   	inc    %ebx
c000166e:	42                   	inc    %edx
c000166f:	e2 f6                	loop   c0001667 <loop2_in_put_int>

c0001671 <loop2_end_in_put_int>:
c0001671:	81 c2 20 16 00 c0    	add    $0xc0001620,%edx
c0001677:	52                   	push   %edx
c0001678:	e8 05 00 00 00       	call   c0001682 <put_str>
c000167d:	83 c4 04             	add    $0x4,%esp
c0001680:	61                   	popa   
c0001681:	c3                   	ret    

c0001682 <put_str>:
c0001682:	60                   	pusha  
c0001683:	89 e5                	mov    %esp,%ebp
c0001685:	8b 5d 24             	mov    0x24(%ebp),%ebx

c0001688 <loop_in_put_str>:
c0001688:	31 c0                	xor    %eax,%eax
c000168a:	8a 03                	mov    (%ebx),%al
c000168c:	3c 00                	cmp    $0x0,%al
c000168e:	74 0c                	je     c000169c <loop_end>
c0001690:	50                   	push   %eax
c0001691:	e8 08 00 00 00       	call   c000169e <put_char>
c0001696:	83 c4 04             	add    $0x4,%esp
c0001699:	43                   	inc    %ebx
c000169a:	eb ec                	jmp    c0001688 <loop_in_put_str>

c000169c <loop_end>:
c000169c:	61                   	popa   
c000169d:	c3                   	ret    

c000169e <put_char>:
c000169e:	66 b8 18 00          	mov    $0x18,%ax
c00016a2:	8e e8                	mov    %eax,%gs
c00016a4:	60                   	pusha  
c00016a5:	8b 4c 24 24          	mov    0x24(%esp),%ecx
c00016a9:	83 f9 0a             	cmp    $0xa,%ecx
c00016ac:	74 0c                	je     c00016ba <lf>
c00016ae:	83 f9 0d             	cmp    $0xd,%ecx
c00016b1:	74 07                	je     c00016ba <lf>
c00016b3:	83 f9 08             	cmp    $0x8,%ecx
c00016b6:	74 2e                	je     c00016e6 <bs>
c00016b8:	eb 45                	jmp    c00016ff <show_char>

c00016ba <lf>:
c00016ba:	e8 76 00 00 00       	call   c0001735 <read_cursor>
c00016bf:	66 31 d2             	xor    %dx,%dx
c00016c2:	66 89 d8             	mov    %bx,%ax
c00016c5:	66 be 50 00          	mov    $0x50,%si
c00016c9:	66 f7 f6             	div    %si
c00016cc:	66 29 d3             	sub    %dx,%bx
c00016cf:	66 83 c3 50          	add    $0x50,%bx
c00016d3:	e8 7d 00 00 00       	call   c0001755 <set_cursor>
c00016d8:	66 81 fb d0 07       	cmp    $0x7d0,%bx
c00016dd:	7c 05                	jl     c00016e4 <not_call_screen_roll_in_lf>
c00016df:	e8 8e 00 00 00       	call   c0001772 <screen_roll>

c00016e4 <not_call_screen_roll_in_lf>:
c00016e4:	eb 4d                	jmp    c0001733 <end>

c00016e6 <bs>:
c00016e6:	e8 4a 00 00 00       	call   c0001735 <read_cursor>
c00016eb:	83 eb 01             	sub    $0x1,%ebx
c00016ee:	d1 e3                	shl    %ebx
c00016f0:	65 66 c7 03 20 00    	movw   $0x20,%gs:(%ebx)
c00016f6:	d1 eb                	shr    %ebx
c00016f8:	e8 58 00 00 00       	call   c0001755 <set_cursor>
c00016fd:	eb 34                	jmp    c0001733 <end>

c00016ff <show_char>:
c00016ff:	e8 31 00 00 00       	call   c0001735 <read_cursor>
c0001704:	66 81 fb d0 07       	cmp    $0x7d0,%bx
c0001709:	7c 05                	jl     c0001710 <not_call_screen_roll_in_showChar>
c000170b:	e8 62 00 00 00       	call   c0001772 <screen_roll>

c0001710 <not_call_screen_roll_in_showChar>:
c0001710:	e8 20 00 00 00       	call   c0001735 <read_cursor>
c0001715:	8b 4c 24 24          	mov    0x24(%esp),%ecx
c0001719:	66 d1 e3             	shl    %bx
c000171c:	65 67 88 0f          	mov    %cl,%gs:(%bx)
c0001720:	66 43                	inc    %bx
c0001722:	65 67 c6 07 07       	movb   $0x7,%gs:(%bx)
c0001727:	66 d1 eb             	shr    %bx
c000172a:	66 43                	inc    %bx
c000172c:	e8 24 00 00 00       	call   c0001755 <set_cursor>
c0001731:	eb 00                	jmp    c0001733 <end>

c0001733 <end>:
c0001733:	61                   	popa   
c0001734:	c3                   	ret    

c0001735 <read_cursor>:
c0001735:	66 ba d4 03          	mov    $0x3d4,%dx
c0001739:	b0 0e                	mov    $0xe,%al
c000173b:	ee                   	out    %al,(%dx)
c000173c:	66 ba d5 03          	mov    $0x3d5,%dx
c0001740:	ec                   	in     (%dx),%al
c0001741:	88 c4                	mov    %al,%ah
c0001743:	66 ba d4 03          	mov    $0x3d4,%dx
c0001747:	b0 0f                	mov    $0xf,%al
c0001749:	ee                   	out    %al,(%dx)
c000174a:	66 ba d5 03          	mov    $0x3d5,%dx
c000174e:	ec                   	in     (%dx),%al
c000174f:	31 db                	xor    %ebx,%ebx
c0001751:	66 89 c3             	mov    %ax,%bx
c0001754:	c3                   	ret    

c0001755 <set_cursor>:
c0001755:	66 ba d4 03          	mov    $0x3d4,%dx
c0001759:	b0 0e                	mov    $0xe,%al
c000175b:	ee                   	out    %al,(%dx)
c000175c:	66 ba d5 03          	mov    $0x3d5,%dx
c0001760:	88 f8                	mov    %bh,%al
c0001762:	ee                   	out    %al,(%dx)
c0001763:	66 ba d4 03          	mov    $0x3d4,%dx
c0001767:	b0 0f                	mov    $0xf,%al
c0001769:	ee                   	out    %al,(%dx)
c000176a:	66 ba d5 03          	mov    $0x3d5,%dx
c000176e:	88 d8                	mov    %bl,%al
c0001770:	ee                   	out    %al,(%dx)
c0001771:	c3                   	ret    

c0001772 <screen_roll>:
c0001772:	be a0 80 0b c0       	mov    $0xc00b80a0,%esi
c0001777:	bf 00 80 0b c0       	mov    $0xc00b8000,%edi
c000177c:	b9 c0 03 00 00       	mov    $0x3c0,%ecx
c0001781:	f3 a5                	rep movsl %ds:(%esi),%es:(%edi)
c0001783:	b9 50 00 00 00       	mov    $0x50,%ecx
c0001788:	bb 00 0f 00 00       	mov    $0xf00,%ebx

c000178d <loop_in_screen_roll>:
c000178d:	65 66 c7 03 20 00    	movw   $0x20,%gs:(%ebx)
c0001793:	83 c3 02             	add    $0x2,%ebx
c0001796:	e2 f5                	loop   c000178d <loop_in_screen_roll>
c0001798:	bb 80 07 00 00       	mov    $0x780,%ebx
c000179d:	e8 b3 ff ff ff       	call   c0001755 <set_cursor>
c00017a2:	c3                   	ret    
c00017a3:	66 90                	xchg   %ax,%ax
c00017a5:	66 90                	xchg   %ax,%ax
c00017a7:	66 90                	xchg   %ax,%ax
c00017a9:	66 90                	xchg   %ax,%ax
c00017ab:	66 90                	xchg   %ax,%ax
c00017ad:	66 90                	xchg   %ax,%ax
c00017af:	90                   	nop

c00017b0 <int0entry>:
c00017b0:	6a 00                	push   $0x0
c00017b2:	1e                   	push   %ds
c00017b3:	06                   	push   %es
c00017b4:	0f a0                	push   %fs
c00017b6:	0f a8                	push   %gs
c00017b8:	60                   	pusha  
c00017b9:	b0 20                	mov    $0x20,%al
c00017bb:	e6 a0                	out    %al,$0xa0
c00017bd:	e6 20                	out    %al,$0x20
c00017bf:	6a 00                	push   $0x0
c00017c1:	ff 15 00 52 00 c0    	call   *0xc0005200
c00017c7:	83 c4 04             	add    $0x4,%esp
c00017ca:	61                   	popa   
c00017cb:	0f a9                	pop    %gs
c00017cd:	0f a1                	pop    %fs
c00017cf:	07                   	pop    %es
c00017d0:	1f                   	pop    %ds
c00017d1:	83 c4 04             	add    $0x4,%esp
c00017d4:	cf                   	iret   

c00017d5 <int1entry>:
c00017d5:	6a 00                	push   $0x0
c00017d7:	1e                   	push   %ds
c00017d8:	06                   	push   %es
c00017d9:	0f a0                	push   %fs
c00017db:	0f a8                	push   %gs
c00017dd:	60                   	pusha  
c00017de:	b0 20                	mov    $0x20,%al
c00017e0:	e6 a0                	out    %al,$0xa0
c00017e2:	e6 20                	out    %al,$0x20
c00017e4:	6a 01                	push   $0x1
c00017e6:	ff 15 04 52 00 c0    	call   *0xc0005204
c00017ec:	83 c4 04             	add    $0x4,%esp
c00017ef:	61                   	popa   
c00017f0:	0f a9                	pop    %gs
c00017f2:	0f a1                	pop    %fs
c00017f4:	07                   	pop    %es
c00017f5:	1f                   	pop    %ds
c00017f6:	83 c4 04             	add    $0x4,%esp
c00017f9:	cf                   	iret   

c00017fa <int2entry>:
c00017fa:	6a 00                	push   $0x0
c00017fc:	1e                   	push   %ds
c00017fd:	06                   	push   %es
c00017fe:	0f a0                	push   %fs
c0001800:	0f a8                	push   %gs
c0001802:	60                   	pusha  
c0001803:	b0 20                	mov    $0x20,%al
c0001805:	e6 a0                	out    %al,$0xa0
c0001807:	e6 20                	out    %al,$0x20
c0001809:	6a 02                	push   $0x2
c000180b:	ff 15 08 52 00 c0    	call   *0xc0005208
c0001811:	83 c4 04             	add    $0x4,%esp
c0001814:	61                   	popa   
c0001815:	0f a9                	pop    %gs
c0001817:	0f a1                	pop    %fs
c0001819:	07                   	pop    %es
c000181a:	1f                   	pop    %ds
c000181b:	83 c4 04             	add    $0x4,%esp
c000181e:	cf                   	iret   

c000181f <int3entry>:
c000181f:	6a 00                	push   $0x0
c0001821:	1e                   	push   %ds
c0001822:	06                   	push   %es
c0001823:	0f a0                	push   %fs
c0001825:	0f a8                	push   %gs
c0001827:	60                   	pusha  
c0001828:	b0 20                	mov    $0x20,%al
c000182a:	e6 a0                	out    %al,$0xa0
c000182c:	e6 20                	out    %al,$0x20
c000182e:	6a 03                	push   $0x3
c0001830:	ff 15 0c 52 00 c0    	call   *0xc000520c
c0001836:	83 c4 04             	add    $0x4,%esp
c0001839:	61                   	popa   
c000183a:	0f a9                	pop    %gs
c000183c:	0f a1                	pop    %fs
c000183e:	07                   	pop    %es
c000183f:	1f                   	pop    %ds
c0001840:	83 c4 04             	add    $0x4,%esp
c0001843:	cf                   	iret   

c0001844 <int4entry>:
c0001844:	6a 00                	push   $0x0
c0001846:	1e                   	push   %ds
c0001847:	06                   	push   %es
c0001848:	0f a0                	push   %fs
c000184a:	0f a8                	push   %gs
c000184c:	60                   	pusha  
c000184d:	b0 20                	mov    $0x20,%al
c000184f:	e6 a0                	out    %al,$0xa0
c0001851:	e6 20                	out    %al,$0x20
c0001853:	6a 04                	push   $0x4
c0001855:	ff 15 10 52 00 c0    	call   *0xc0005210
c000185b:	83 c4 04             	add    $0x4,%esp
c000185e:	61                   	popa   
c000185f:	0f a9                	pop    %gs
c0001861:	0f a1                	pop    %fs
c0001863:	07                   	pop    %es
c0001864:	1f                   	pop    %ds
c0001865:	83 c4 04             	add    $0x4,%esp
c0001868:	cf                   	iret   

c0001869 <int5entry>:
c0001869:	6a 00                	push   $0x0
c000186b:	1e                   	push   %ds
c000186c:	06                   	push   %es
c000186d:	0f a0                	push   %fs
c000186f:	0f a8                	push   %gs
c0001871:	60                   	pusha  
c0001872:	b0 20                	mov    $0x20,%al
c0001874:	e6 a0                	out    %al,$0xa0
c0001876:	e6 20                	out    %al,$0x20
c0001878:	6a 05                	push   $0x5
c000187a:	ff 15 14 52 00 c0    	call   *0xc0005214
c0001880:	83 c4 04             	add    $0x4,%esp
c0001883:	61                   	popa   
c0001884:	0f a9                	pop    %gs
c0001886:	0f a1                	pop    %fs
c0001888:	07                   	pop    %es
c0001889:	1f                   	pop    %ds
c000188a:	83 c4 04             	add    $0x4,%esp
c000188d:	cf                   	iret   

c000188e <int6entry>:
c000188e:	6a 00                	push   $0x0
c0001890:	1e                   	push   %ds
c0001891:	06                   	push   %es
c0001892:	0f a0                	push   %fs
c0001894:	0f a8                	push   %gs
c0001896:	60                   	pusha  
c0001897:	b0 20                	mov    $0x20,%al
c0001899:	e6 a0                	out    %al,$0xa0
c000189b:	e6 20                	out    %al,$0x20
c000189d:	6a 06                	push   $0x6
c000189f:	ff 15 18 52 00 c0    	call   *0xc0005218
c00018a5:	83 c4 04             	add    $0x4,%esp
c00018a8:	61                   	popa   
c00018a9:	0f a9                	pop    %gs
c00018ab:	0f a1                	pop    %fs
c00018ad:	07                   	pop    %es
c00018ae:	1f                   	pop    %ds
c00018af:	83 c4 04             	add    $0x4,%esp
c00018b2:	cf                   	iret   

c00018b3 <int7entry>:
c00018b3:	6a 00                	push   $0x0
c00018b5:	1e                   	push   %ds
c00018b6:	06                   	push   %es
c00018b7:	0f a0                	push   %fs
c00018b9:	0f a8                	push   %gs
c00018bb:	60                   	pusha  
c00018bc:	b0 20                	mov    $0x20,%al
c00018be:	e6 a0                	out    %al,$0xa0
c00018c0:	e6 20                	out    %al,$0x20
c00018c2:	6a 07                	push   $0x7
c00018c4:	ff 15 1c 52 00 c0    	call   *0xc000521c
c00018ca:	83 c4 04             	add    $0x4,%esp
c00018cd:	61                   	popa   
c00018ce:	0f a9                	pop    %gs
c00018d0:	0f a1                	pop    %fs
c00018d2:	07                   	pop    %es
c00018d3:	1f                   	pop    %ds
c00018d4:	83 c4 04             	add    $0x4,%esp
c00018d7:	cf                   	iret   

c00018d8 <int8entry>:
c00018d8:	90                   	nop
c00018d9:	1e                   	push   %ds
c00018da:	06                   	push   %es
c00018db:	0f a0                	push   %fs
c00018dd:	0f a8                	push   %gs
c00018df:	60                   	pusha  
c00018e0:	b0 20                	mov    $0x20,%al
c00018e2:	e6 a0                	out    %al,$0xa0
c00018e4:	e6 20                	out    %al,$0x20
c00018e6:	6a 08                	push   $0x8
c00018e8:	ff 15 20 52 00 c0    	call   *0xc0005220
c00018ee:	83 c4 04             	add    $0x4,%esp
c00018f1:	61                   	popa   
c00018f2:	0f a9                	pop    %gs
c00018f4:	0f a1                	pop    %fs
c00018f6:	07                   	pop    %es
c00018f7:	1f                   	pop    %ds
c00018f8:	83 c4 04             	add    $0x4,%esp
c00018fb:	cf                   	iret   

c00018fc <int9entry>:
c00018fc:	6a 00                	push   $0x0
c00018fe:	1e                   	push   %ds
c00018ff:	06                   	push   %es
c0001900:	0f a0                	push   %fs
c0001902:	0f a8                	push   %gs
c0001904:	60                   	pusha  
c0001905:	b0 20                	mov    $0x20,%al
c0001907:	e6 a0                	out    %al,$0xa0
c0001909:	e6 20                	out    %al,$0x20
c000190b:	6a 09                	push   $0x9
c000190d:	ff 15 24 52 00 c0    	call   *0xc0005224
c0001913:	83 c4 04             	add    $0x4,%esp
c0001916:	61                   	popa   
c0001917:	0f a9                	pop    %gs
c0001919:	0f a1                	pop    %fs
c000191b:	07                   	pop    %es
c000191c:	1f                   	pop    %ds
c000191d:	83 c4 04             	add    $0x4,%esp
c0001920:	cf                   	iret   

c0001921 <int10entry>:
c0001921:	90                   	nop
c0001922:	1e                   	push   %ds
c0001923:	06                   	push   %es
c0001924:	0f a0                	push   %fs
c0001926:	0f a8                	push   %gs
c0001928:	60                   	pusha  
c0001929:	b0 20                	mov    $0x20,%al
c000192b:	e6 a0                	out    %al,$0xa0
c000192d:	e6 20                	out    %al,$0x20
c000192f:	6a 0a                	push   $0xa
c0001931:	ff 15 28 52 00 c0    	call   *0xc0005228
c0001937:	83 c4 04             	add    $0x4,%esp
c000193a:	61                   	popa   
c000193b:	0f a9                	pop    %gs
c000193d:	0f a1                	pop    %fs
c000193f:	07                   	pop    %es
c0001940:	1f                   	pop    %ds
c0001941:	83 c4 04             	add    $0x4,%esp
c0001944:	cf                   	iret   

c0001945 <int11entry>:
c0001945:	90                   	nop
c0001946:	1e                   	push   %ds
c0001947:	06                   	push   %es
c0001948:	0f a0                	push   %fs
c000194a:	0f a8                	push   %gs
c000194c:	60                   	pusha  
c000194d:	b0 20                	mov    $0x20,%al
c000194f:	e6 a0                	out    %al,$0xa0
c0001951:	e6 20                	out    %al,$0x20
c0001953:	6a 0b                	push   $0xb
c0001955:	ff 15 2c 52 00 c0    	call   *0xc000522c
c000195b:	83 c4 04             	add    $0x4,%esp
c000195e:	61                   	popa   
c000195f:	0f a9                	pop    %gs
c0001961:	0f a1                	pop    %fs
c0001963:	07                   	pop    %es
c0001964:	1f                   	pop    %ds
c0001965:	83 c4 04             	add    $0x4,%esp
c0001968:	cf                   	iret   

c0001969 <int12entry>:
c0001969:	90                   	nop
c000196a:	1e                   	push   %ds
c000196b:	06                   	push   %es
c000196c:	0f a0                	push   %fs
c000196e:	0f a8                	push   %gs
c0001970:	60                   	pusha  
c0001971:	b0 20                	mov    $0x20,%al
c0001973:	e6 a0                	out    %al,$0xa0
c0001975:	e6 20                	out    %al,$0x20
c0001977:	6a 0c                	push   $0xc
c0001979:	ff 15 30 52 00 c0    	call   *0xc0005230
c000197f:	83 c4 04             	add    $0x4,%esp
c0001982:	61                   	popa   
c0001983:	0f a9                	pop    %gs
c0001985:	0f a1                	pop    %fs
c0001987:	07                   	pop    %es
c0001988:	1f                   	pop    %ds
c0001989:	83 c4 04             	add    $0x4,%esp
c000198c:	cf                   	iret   

c000198d <int13entry>:
c000198d:	90                   	nop
c000198e:	1e                   	push   %ds
c000198f:	06                   	push   %es
c0001990:	0f a0                	push   %fs
c0001992:	0f a8                	push   %gs
c0001994:	60                   	pusha  
c0001995:	b0 20                	mov    $0x20,%al
c0001997:	e6 a0                	out    %al,$0xa0
c0001999:	e6 20                	out    %al,$0x20
c000199b:	6a 0d                	push   $0xd
c000199d:	ff 15 34 52 00 c0    	call   *0xc0005234
c00019a3:	83 c4 04             	add    $0x4,%esp
c00019a6:	61                   	popa   
c00019a7:	0f a9                	pop    %gs
c00019a9:	0f a1                	pop    %fs
c00019ab:	07                   	pop    %es
c00019ac:	1f                   	pop    %ds
c00019ad:	83 c4 04             	add    $0x4,%esp
c00019b0:	cf                   	iret   

c00019b1 <int14entry>:
c00019b1:	90                   	nop
c00019b2:	1e                   	push   %ds
c00019b3:	06                   	push   %es
c00019b4:	0f a0                	push   %fs
c00019b6:	0f a8                	push   %gs
c00019b8:	60                   	pusha  
c00019b9:	b0 20                	mov    $0x20,%al
c00019bb:	e6 a0                	out    %al,$0xa0
c00019bd:	e6 20                	out    %al,$0x20
c00019bf:	6a 0e                	push   $0xe
c00019c1:	ff 15 38 52 00 c0    	call   *0xc0005238
c00019c7:	83 c4 04             	add    $0x4,%esp
c00019ca:	61                   	popa   
c00019cb:	0f a9                	pop    %gs
c00019cd:	0f a1                	pop    %fs
c00019cf:	07                   	pop    %es
c00019d0:	1f                   	pop    %ds
c00019d1:	83 c4 04             	add    $0x4,%esp
c00019d4:	cf                   	iret   

c00019d5 <int15entry>:
c00019d5:	6a 00                	push   $0x0
c00019d7:	1e                   	push   %ds
c00019d8:	06                   	push   %es
c00019d9:	0f a0                	push   %fs
c00019db:	0f a8                	push   %gs
c00019dd:	60                   	pusha  
c00019de:	b0 20                	mov    $0x20,%al
c00019e0:	e6 a0                	out    %al,$0xa0
c00019e2:	e6 20                	out    %al,$0x20
c00019e4:	6a 0f                	push   $0xf
c00019e6:	ff 15 3c 52 00 c0    	call   *0xc000523c
c00019ec:	83 c4 04             	add    $0x4,%esp
c00019ef:	61                   	popa   
c00019f0:	0f a9                	pop    %gs
c00019f2:	0f a1                	pop    %fs
c00019f4:	07                   	pop    %es
c00019f5:	1f                   	pop    %ds
c00019f6:	83 c4 04             	add    $0x4,%esp
c00019f9:	cf                   	iret   

c00019fa <int16entry>:
c00019fa:	6a 00                	push   $0x0
c00019fc:	1e                   	push   %ds
c00019fd:	06                   	push   %es
c00019fe:	0f a0                	push   %fs
c0001a00:	0f a8                	push   %gs
c0001a02:	60                   	pusha  
c0001a03:	b0 20                	mov    $0x20,%al
c0001a05:	e6 a0                	out    %al,$0xa0
c0001a07:	e6 20                	out    %al,$0x20
c0001a09:	6a 10                	push   $0x10
c0001a0b:	ff 15 40 52 00 c0    	call   *0xc0005240
c0001a11:	83 c4 04             	add    $0x4,%esp
c0001a14:	61                   	popa   
c0001a15:	0f a9                	pop    %gs
c0001a17:	0f a1                	pop    %fs
c0001a19:	07                   	pop    %es
c0001a1a:	1f                   	pop    %ds
c0001a1b:	83 c4 04             	add    $0x4,%esp
c0001a1e:	cf                   	iret   

c0001a1f <int17entry>:
c0001a1f:	90                   	nop
c0001a20:	1e                   	push   %ds
c0001a21:	06                   	push   %es
c0001a22:	0f a0                	push   %fs
c0001a24:	0f a8                	push   %gs
c0001a26:	60                   	pusha  
c0001a27:	b0 20                	mov    $0x20,%al
c0001a29:	e6 a0                	out    %al,$0xa0
c0001a2b:	e6 20                	out    %al,$0x20
c0001a2d:	6a 11                	push   $0x11
c0001a2f:	ff 15 44 52 00 c0    	call   *0xc0005244
c0001a35:	83 c4 04             	add    $0x4,%esp
c0001a38:	61                   	popa   
c0001a39:	0f a9                	pop    %gs
c0001a3b:	0f a1                	pop    %fs
c0001a3d:	07                   	pop    %es
c0001a3e:	1f                   	pop    %ds
c0001a3f:	83 c4 04             	add    $0x4,%esp
c0001a42:	cf                   	iret   

c0001a43 <int18entry>:
c0001a43:	6a 00                	push   $0x0
c0001a45:	1e                   	push   %ds
c0001a46:	06                   	push   %es
c0001a47:	0f a0                	push   %fs
c0001a49:	0f a8                	push   %gs
c0001a4b:	60                   	pusha  
c0001a4c:	b0 20                	mov    $0x20,%al
c0001a4e:	e6 a0                	out    %al,$0xa0
c0001a50:	e6 20                	out    %al,$0x20
c0001a52:	6a 12                	push   $0x12
c0001a54:	ff 15 48 52 00 c0    	call   *0xc0005248
c0001a5a:	83 c4 04             	add    $0x4,%esp
c0001a5d:	61                   	popa   
c0001a5e:	0f a9                	pop    %gs
c0001a60:	0f a1                	pop    %fs
c0001a62:	07                   	pop    %es
c0001a63:	1f                   	pop    %ds
c0001a64:	83 c4 04             	add    $0x4,%esp
c0001a67:	cf                   	iret   

c0001a68 <int19entry>:
c0001a68:	6a 00                	push   $0x0
c0001a6a:	1e                   	push   %ds
c0001a6b:	06                   	push   %es
c0001a6c:	0f a0                	push   %fs
c0001a6e:	0f a8                	push   %gs
c0001a70:	60                   	pusha  
c0001a71:	b0 20                	mov    $0x20,%al
c0001a73:	e6 a0                	out    %al,$0xa0
c0001a75:	e6 20                	out    %al,$0x20
c0001a77:	6a 13                	push   $0x13
c0001a79:	ff 15 4c 52 00 c0    	call   *0xc000524c
c0001a7f:	83 c4 04             	add    $0x4,%esp
c0001a82:	61                   	popa   
c0001a83:	0f a9                	pop    %gs
c0001a85:	0f a1                	pop    %fs
c0001a87:	07                   	pop    %es
c0001a88:	1f                   	pop    %ds
c0001a89:	83 c4 04             	add    $0x4,%esp
c0001a8c:	cf                   	iret   

c0001a8d <int20entry>:
c0001a8d:	6a 00                	push   $0x0
c0001a8f:	1e                   	push   %ds
c0001a90:	06                   	push   %es
c0001a91:	0f a0                	push   %fs
c0001a93:	0f a8                	push   %gs
c0001a95:	60                   	pusha  
c0001a96:	b0 20                	mov    $0x20,%al
c0001a98:	e6 a0                	out    %al,$0xa0
c0001a9a:	e6 20                	out    %al,$0x20
c0001a9c:	6a 14                	push   $0x14
c0001a9e:	ff 15 50 52 00 c0    	call   *0xc0005250
c0001aa4:	83 c4 04             	add    $0x4,%esp
c0001aa7:	61                   	popa   
c0001aa8:	0f a9                	pop    %gs
c0001aaa:	0f a1                	pop    %fs
c0001aac:	07                   	pop    %es
c0001aad:	1f                   	pop    %ds
c0001aae:	83 c4 04             	add    $0x4,%esp
c0001ab1:	cf                   	iret   

c0001ab2 <int21entry>:
c0001ab2:	6a 00                	push   $0x0
c0001ab4:	1e                   	push   %ds
c0001ab5:	06                   	push   %es
c0001ab6:	0f a0                	push   %fs
c0001ab8:	0f a8                	push   %gs
c0001aba:	60                   	pusha  
c0001abb:	b0 20                	mov    $0x20,%al
c0001abd:	e6 a0                	out    %al,$0xa0
c0001abf:	e6 20                	out    %al,$0x20
c0001ac1:	6a 15                	push   $0x15
c0001ac3:	ff 15 54 52 00 c0    	call   *0xc0005254
c0001ac9:	83 c4 04             	add    $0x4,%esp
c0001acc:	61                   	popa   
c0001acd:	0f a9                	pop    %gs
c0001acf:	0f a1                	pop    %fs
c0001ad1:	07                   	pop    %es
c0001ad2:	1f                   	pop    %ds
c0001ad3:	83 c4 04             	add    $0x4,%esp
c0001ad6:	cf                   	iret   

c0001ad7 <int22entry>:
c0001ad7:	6a 00                	push   $0x0
c0001ad9:	1e                   	push   %ds
c0001ada:	06                   	push   %es
c0001adb:	0f a0                	push   %fs
c0001add:	0f a8                	push   %gs
c0001adf:	60                   	pusha  
c0001ae0:	b0 20                	mov    $0x20,%al
c0001ae2:	e6 a0                	out    %al,$0xa0
c0001ae4:	e6 20                	out    %al,$0x20
c0001ae6:	6a 16                	push   $0x16
c0001ae8:	ff 15 58 52 00 c0    	call   *0xc0005258
c0001aee:	83 c4 04             	add    $0x4,%esp
c0001af1:	61                   	popa   
c0001af2:	0f a9                	pop    %gs
c0001af4:	0f a1                	pop    %fs
c0001af6:	07                   	pop    %es
c0001af7:	1f                   	pop    %ds
c0001af8:	83 c4 04             	add    $0x4,%esp
c0001afb:	cf                   	iret   

c0001afc <int23entry>:
c0001afc:	6a 00                	push   $0x0
c0001afe:	1e                   	push   %ds
c0001aff:	06                   	push   %es
c0001b00:	0f a0                	push   %fs
c0001b02:	0f a8                	push   %gs
c0001b04:	60                   	pusha  
c0001b05:	b0 20                	mov    $0x20,%al
c0001b07:	e6 a0                	out    %al,$0xa0
c0001b09:	e6 20                	out    %al,$0x20
c0001b0b:	6a 17                	push   $0x17
c0001b0d:	ff 15 5c 52 00 c0    	call   *0xc000525c
c0001b13:	83 c4 04             	add    $0x4,%esp
c0001b16:	61                   	popa   
c0001b17:	0f a9                	pop    %gs
c0001b19:	0f a1                	pop    %fs
c0001b1b:	07                   	pop    %es
c0001b1c:	1f                   	pop    %ds
c0001b1d:	83 c4 04             	add    $0x4,%esp
c0001b20:	cf                   	iret   

c0001b21 <int24entry>:
c0001b21:	6a 00                	push   $0x0
c0001b23:	1e                   	push   %ds
c0001b24:	06                   	push   %es
c0001b25:	0f a0                	push   %fs
c0001b27:	0f a8                	push   %gs
c0001b29:	60                   	pusha  
c0001b2a:	b0 20                	mov    $0x20,%al
c0001b2c:	e6 a0                	out    %al,$0xa0
c0001b2e:	e6 20                	out    %al,$0x20
c0001b30:	6a 18                	push   $0x18
c0001b32:	ff 15 60 52 00 c0    	call   *0xc0005260
c0001b38:	83 c4 04             	add    $0x4,%esp
c0001b3b:	61                   	popa   
c0001b3c:	0f a9                	pop    %gs
c0001b3e:	0f a1                	pop    %fs
c0001b40:	07                   	pop    %es
c0001b41:	1f                   	pop    %ds
c0001b42:	83 c4 04             	add    $0x4,%esp
c0001b45:	cf                   	iret   

c0001b46 <int25entry>:
c0001b46:	6a 00                	push   $0x0
c0001b48:	1e                   	push   %ds
c0001b49:	06                   	push   %es
c0001b4a:	0f a0                	push   %fs
c0001b4c:	0f a8                	push   %gs
c0001b4e:	60                   	pusha  
c0001b4f:	b0 20                	mov    $0x20,%al
c0001b51:	e6 a0                	out    %al,$0xa0
c0001b53:	e6 20                	out    %al,$0x20
c0001b55:	6a 19                	push   $0x19
c0001b57:	ff 15 64 52 00 c0    	call   *0xc0005264
c0001b5d:	83 c4 04             	add    $0x4,%esp
c0001b60:	61                   	popa   
c0001b61:	0f a9                	pop    %gs
c0001b63:	0f a1                	pop    %fs
c0001b65:	07                   	pop    %es
c0001b66:	1f                   	pop    %ds
c0001b67:	83 c4 04             	add    $0x4,%esp
c0001b6a:	cf                   	iret   

c0001b6b <int26entry>:
c0001b6b:	6a 00                	push   $0x0
c0001b6d:	1e                   	push   %ds
c0001b6e:	06                   	push   %es
c0001b6f:	0f a0                	push   %fs
c0001b71:	0f a8                	push   %gs
c0001b73:	60                   	pusha  
c0001b74:	b0 20                	mov    $0x20,%al
c0001b76:	e6 a0                	out    %al,$0xa0
c0001b78:	e6 20                	out    %al,$0x20
c0001b7a:	6a 1a                	push   $0x1a
c0001b7c:	ff 15 68 52 00 c0    	call   *0xc0005268
c0001b82:	83 c4 04             	add    $0x4,%esp
c0001b85:	61                   	popa   
c0001b86:	0f a9                	pop    %gs
c0001b88:	0f a1                	pop    %fs
c0001b8a:	07                   	pop    %es
c0001b8b:	1f                   	pop    %ds
c0001b8c:	83 c4 04             	add    $0x4,%esp
c0001b8f:	cf                   	iret   

c0001b90 <int27entry>:
c0001b90:	6a 00                	push   $0x0
c0001b92:	1e                   	push   %ds
c0001b93:	06                   	push   %es
c0001b94:	0f a0                	push   %fs
c0001b96:	0f a8                	push   %gs
c0001b98:	60                   	pusha  
c0001b99:	b0 20                	mov    $0x20,%al
c0001b9b:	e6 a0                	out    %al,$0xa0
c0001b9d:	e6 20                	out    %al,$0x20
c0001b9f:	6a 1b                	push   $0x1b
c0001ba1:	ff 15 6c 52 00 c0    	call   *0xc000526c
c0001ba7:	83 c4 04             	add    $0x4,%esp
c0001baa:	61                   	popa   
c0001bab:	0f a9                	pop    %gs
c0001bad:	0f a1                	pop    %fs
c0001baf:	07                   	pop    %es
c0001bb0:	1f                   	pop    %ds
c0001bb1:	83 c4 04             	add    $0x4,%esp
c0001bb4:	cf                   	iret   

c0001bb5 <int28entry>:
c0001bb5:	6a 00                	push   $0x0
c0001bb7:	1e                   	push   %ds
c0001bb8:	06                   	push   %es
c0001bb9:	0f a0                	push   %fs
c0001bbb:	0f a8                	push   %gs
c0001bbd:	60                   	pusha  
c0001bbe:	b0 20                	mov    $0x20,%al
c0001bc0:	e6 a0                	out    %al,$0xa0
c0001bc2:	e6 20                	out    %al,$0x20
c0001bc4:	6a 1c                	push   $0x1c
c0001bc6:	ff 15 70 52 00 c0    	call   *0xc0005270
c0001bcc:	83 c4 04             	add    $0x4,%esp
c0001bcf:	61                   	popa   
c0001bd0:	0f a9                	pop    %gs
c0001bd2:	0f a1                	pop    %fs
c0001bd4:	07                   	pop    %es
c0001bd5:	1f                   	pop    %ds
c0001bd6:	83 c4 04             	add    $0x4,%esp
c0001bd9:	cf                   	iret   

c0001bda <int29entry>:
c0001bda:	6a 00                	push   $0x0
c0001bdc:	1e                   	push   %ds
c0001bdd:	06                   	push   %es
c0001bde:	0f a0                	push   %fs
c0001be0:	0f a8                	push   %gs
c0001be2:	60                   	pusha  
c0001be3:	b0 20                	mov    $0x20,%al
c0001be5:	e6 a0                	out    %al,$0xa0
c0001be7:	e6 20                	out    %al,$0x20
c0001be9:	6a 1d                	push   $0x1d
c0001beb:	ff 15 74 52 00 c0    	call   *0xc0005274
c0001bf1:	83 c4 04             	add    $0x4,%esp
c0001bf4:	61                   	popa   
c0001bf5:	0f a9                	pop    %gs
c0001bf7:	0f a1                	pop    %fs
c0001bf9:	07                   	pop    %es
c0001bfa:	1f                   	pop    %ds
c0001bfb:	83 c4 04             	add    $0x4,%esp
c0001bfe:	cf                   	iret   

c0001bff <int30entry>:
c0001bff:	6a 00                	push   $0x0
c0001c01:	1e                   	push   %ds
c0001c02:	06                   	push   %es
c0001c03:	0f a0                	push   %fs
c0001c05:	0f a8                	push   %gs
c0001c07:	60                   	pusha  
c0001c08:	b0 20                	mov    $0x20,%al
c0001c0a:	e6 a0                	out    %al,$0xa0
c0001c0c:	e6 20                	out    %al,$0x20
c0001c0e:	6a 1e                	push   $0x1e
c0001c10:	ff 15 78 52 00 c0    	call   *0xc0005278
c0001c16:	83 c4 04             	add    $0x4,%esp
c0001c19:	61                   	popa   
c0001c1a:	0f a9                	pop    %gs
c0001c1c:	0f a1                	pop    %fs
c0001c1e:	07                   	pop    %es
c0001c1f:	1f                   	pop    %ds
c0001c20:	83 c4 04             	add    $0x4,%esp
c0001c23:	cf                   	iret   

c0001c24 <int31entry>:
c0001c24:	6a 00                	push   $0x0
c0001c26:	1e                   	push   %ds
c0001c27:	06                   	push   %es
c0001c28:	0f a0                	push   %fs
c0001c2a:	0f a8                	push   %gs
c0001c2c:	60                   	pusha  
c0001c2d:	b0 20                	mov    $0x20,%al
c0001c2f:	e6 a0                	out    %al,$0xa0
c0001c31:	e6 20                	out    %al,$0x20
c0001c33:	6a 1f                	push   $0x1f
c0001c35:	ff 15 7c 52 00 c0    	call   *0xc000527c
c0001c3b:	83 c4 04             	add    $0x4,%esp
c0001c3e:	61                   	popa   
c0001c3f:	0f a9                	pop    %gs
c0001c41:	0f a1                	pop    %fs
c0001c43:	07                   	pop    %es
c0001c44:	1f                   	pop    %ds
c0001c45:	83 c4 04             	add    $0x4,%esp
c0001c48:	cf                   	iret   

c0001c49 <int32entry>:
c0001c49:	6a 00                	push   $0x0
c0001c4b:	1e                   	push   %ds
c0001c4c:	06                   	push   %es
c0001c4d:	0f a0                	push   %fs
c0001c4f:	0f a8                	push   %gs
c0001c51:	60                   	pusha  
c0001c52:	b0 20                	mov    $0x20,%al
c0001c54:	e6 a0                	out    %al,$0xa0
c0001c56:	e6 20                	out    %al,$0x20
c0001c58:	6a 20                	push   $0x20
c0001c5a:	ff 15 80 52 00 c0    	call   *0xc0005280
c0001c60:	83 c4 04             	add    $0x4,%esp
c0001c63:	61                   	popa   
c0001c64:	0f a9                	pop    %gs
c0001c66:	0f a1                	pop    %fs
c0001c68:	07                   	pop    %es
c0001c69:	1f                   	pop    %ds
c0001c6a:	83 c4 04             	add    $0x4,%esp
c0001c6d:	cf                   	iret   

c0001c6e <outb>:
c0001c6e:	55                   	push   %ebp
c0001c6f:	89 e5                	mov    %esp,%ebp
c0001c71:	83 ec 08             	sub    $0x8,%esp
c0001c74:	e8 57 03 00 00       	call   c0001fd0 <__x86.get_pc_thunk.ax>
c0001c79:	05 87 33 00 00       	add    $0x3387,%eax
c0001c7e:	8b 55 08             	mov    0x8(%ebp),%edx
c0001c81:	8b 45 0c             	mov    0xc(%ebp),%eax
c0001c84:	88 55 fc             	mov    %dl,-0x4(%ebp)
c0001c87:	66 89 45 f8          	mov    %ax,-0x8(%ebp)
c0001c8b:	0f b6 45 fc          	movzbl -0x4(%ebp),%eax
c0001c8f:	0f b7 55 f8          	movzwl -0x8(%ebp),%edx
c0001c93:	ee                   	out    %al,(%dx)
c0001c94:	90                   	nop
c0001c95:	c9                   	leave  
c0001c96:	c3                   	ret    

c0001c97 <init_8259A>:
c0001c97:	55                   	push   %ebp
c0001c98:	89 e5                	mov    %esp,%ebp
c0001c9a:	e8 31 03 00 00       	call   c0001fd0 <__x86.get_pc_thunk.ax>
c0001c9f:	05 61 33 00 00       	add    $0x3361,%eax
c0001ca4:	6a 20                	push   $0x20
c0001ca6:	6a 11                	push   $0x11
c0001ca8:	e8 c1 ff ff ff       	call   c0001c6e <outb>
c0001cad:	83 c4 08             	add    $0x8,%esp
c0001cb0:	6a 21                	push   $0x21
c0001cb2:	6a 20                	push   $0x20
c0001cb4:	e8 b5 ff ff ff       	call   c0001c6e <outb>
c0001cb9:	83 c4 08             	add    $0x8,%esp
c0001cbc:	6a 21                	push   $0x21
c0001cbe:	6a 04                	push   $0x4
c0001cc0:	e8 a9 ff ff ff       	call   c0001c6e <outb>
c0001cc5:	83 c4 08             	add    $0x8,%esp
c0001cc8:	6a 21                	push   $0x21
c0001cca:	6a 01                	push   $0x1
c0001ccc:	e8 9d ff ff ff       	call   c0001c6e <outb>
c0001cd1:	83 c4 08             	add    $0x8,%esp
c0001cd4:	68 a0 00 00 00       	push   $0xa0
c0001cd9:	6a 11                	push   $0x11
c0001cdb:	e8 8e ff ff ff       	call   c0001c6e <outb>
c0001ce0:	83 c4 08             	add    $0x8,%esp
c0001ce3:	68 a1 00 00 00       	push   $0xa1
c0001ce8:	6a 28                	push   $0x28
c0001cea:	e8 7f ff ff ff       	call   c0001c6e <outb>
c0001cef:	83 c4 08             	add    $0x8,%esp
c0001cf2:	68 a1 00 00 00       	push   $0xa1
c0001cf7:	6a 02                	push   $0x2
c0001cf9:	e8 70 ff ff ff       	call   c0001c6e <outb>
c0001cfe:	83 c4 08             	add    $0x8,%esp
c0001d01:	68 a1 00 00 00       	push   $0xa1
c0001d06:	6a 01                	push   $0x1
c0001d08:	e8 61 ff ff ff       	call   c0001c6e <outb>
c0001d0d:	83 c4 08             	add    $0x8,%esp
c0001d10:	6a 21                	push   $0x21
c0001d12:	68 fe 00 00 00       	push   $0xfe
c0001d17:	e8 52 ff ff ff       	call   c0001c6e <outb>
c0001d1c:	83 c4 08             	add    $0x8,%esp
c0001d1f:	68 a1 00 00 00       	push   $0xa1
c0001d24:	68 ff 00 00 00       	push   $0xff
c0001d29:	e8 40 ff ff ff       	call   c0001c6e <outb>
c0001d2e:	83 c4 08             	add    $0x8,%esp
c0001d31:	90                   	nop
c0001d32:	c9                   	leave  
c0001d33:	c3                   	ret    

c0001d34 <init_idt>:
c0001d34:	55                   	push   %ebp
c0001d35:	89 e5                	mov    %esp,%ebp
c0001d37:	83 ec 10             	sub    $0x10,%esp
c0001d3a:	e8 91 02 00 00       	call   c0001fd0 <__x86.get_pc_thunk.ax>
c0001d3f:	05 c1 32 00 00       	add    $0x32c1,%eax
c0001d44:	c7 45 fc 00 00 00 00 	movl   $0x0,-0x4(%ebp)
c0001d4b:	eb 5c                	jmp    c0001da9 <init_idt+0x75>
c0001d4d:	c7 c2 23 50 00 c0    	mov    $0xc0005023,%edx
c0001d53:	8b 4d fc             	mov    -0x4(%ebp),%ecx
c0001d56:	8b 14 8a             	mov    (%edx,%ecx,4),%edx
c0001d59:	89 d1                	mov    %edx,%ecx
c0001d5b:	8b 55 fc             	mov    -0x4(%ebp),%edx
c0001d5e:	66 89 8c d0 c0 00 00 	mov    %cx,0xc0(%eax,%edx,8)
c0001d65:	00 
c0001d66:	8b 55 fc             	mov    -0x4(%ebp),%edx
c0001d69:	66 c7 84 d0 c2 00 00 	movw   $0x8,0xc2(%eax,%edx,8)
c0001d70:	00 08 00 
c0001d73:	8b 55 fc             	mov    -0x4(%ebp),%edx
c0001d76:	c6 84 d0 c4 00 00 00 	movb   $0x0,0xc4(%eax,%edx,8)
c0001d7d:	00 
c0001d7e:	8b 55 fc             	mov    -0x4(%ebp),%edx
c0001d81:	c6 84 d0 c5 00 00 00 	movb   $0x8e,0xc5(%eax,%edx,8)
c0001d88:	8e 
c0001d89:	c7 c2 23 50 00 c0    	mov    $0xc0005023,%edx
c0001d8f:	8b 4d fc             	mov    -0x4(%ebp),%ecx
c0001d92:	8b 14 8a             	mov    (%edx,%ecx,4),%edx
c0001d95:	c1 ea 10             	shr    $0x10,%edx
c0001d98:	89 d1                	mov    %edx,%ecx
c0001d9a:	8b 55 fc             	mov    -0x4(%ebp),%edx
c0001d9d:	66 89 8c d0 c6 00 00 	mov    %cx,0xc6(%eax,%edx,8)
c0001da4:	00 
c0001da5:	83 45 fc 01          	addl   $0x1,-0x4(%ebp)
c0001da9:	83 7d fc 20          	cmpl   $0x20,-0x4(%ebp)
c0001dad:	7e 9e                	jle    c0001d4d <init_idt+0x19>
c0001daf:	90                   	nop
c0001db0:	c9                   	leave  
c0001db1:	c3                   	ret    

c0001db2 <general_interrupt_handler>:
c0001db2:	55                   	push   %ebp
c0001db3:	89 e5                	mov    %esp,%ebp
c0001db5:	56                   	push   %esi
c0001db6:	53                   	push   %ebx
c0001db7:	83 ec 10             	sub    $0x10,%esp
c0001dba:	e8 15 02 00 00       	call   c0001fd4 <__x86.get_pc_thunk.si>
c0001dbf:	81 c6 41 32 00 00    	add    $0x3241,%esi
c0001dc5:	b9 00 00 00 00       	mov    $0x0,%ecx
c0001dca:	89 cb                	mov    %ecx,%ebx
c0001dcc:	e8 84 f9 ff ff       	call   c0001755 <set_cursor>
c0001dd1:	c7 45 f4 00 00 00 00 	movl   $0x0,-0xc(%ebp)
c0001dd8:	eb 13                	jmp    c0001ded <general_interrupt_handler+0x3b>
c0001dda:	83 ec 0c             	sub    $0xc,%esp
c0001ddd:	6a 20                	push   $0x20
c0001ddf:	89 f3                	mov    %esi,%ebx
c0001de1:	e8 b8 f8 ff ff       	call   c000169e <put_char>
c0001de6:	83 c4 10             	add    $0x10,%esp
c0001de9:	83 45 f4 01          	addl   $0x1,-0xc(%ebp)
c0001ded:	81 7d f4 3f 01 00 00 	cmpl   $0x13f,-0xc(%ebp)
c0001df4:	76 e4                	jbe    c0001dda <general_interrupt_handler+0x28>
c0001df6:	83 ec 0c             	sub    $0xc,%esp
c0001df9:	8d 86 28 e3 ff ff    	lea    -0x1cd8(%esi),%eax
c0001dff:	50                   	push   %eax
c0001e00:	89 f3                	mov    %esi,%ebx
c0001e02:	e8 7b f8 ff ff       	call   c0001682 <put_str>
c0001e07:	83 c4 10             	add    $0x10,%esp
c0001e0a:	83 ec 0c             	sub    $0xc,%esp
c0001e0d:	8d 86 4f e3 ff ff    	lea    -0x1cb1(%esi),%eax
c0001e13:	50                   	push   %eax
c0001e14:	89 f3                	mov    %esi,%ebx
c0001e16:	e8 67 f8 ff ff       	call   c0001682 <put_str>
c0001e1b:	83 c4 10             	add    $0x10,%esp
c0001e1e:	83 ec 0c             	sub    $0xc,%esp
c0001e21:	ff 75 08             	pushl  0x8(%ebp)
c0001e24:	89 f3                	mov    %esi,%ebx
c0001e26:	e8 fe f7 ff ff       	call   c0001629 <put_int>
c0001e2b:	83 c4 10             	add    $0x10,%esp
c0001e2e:	83 ec 0c             	sub    $0xc,%esp
c0001e31:	8d 86 5b e3 ff ff    	lea    -0x1ca5(%esi),%eax
c0001e37:	50                   	push   %eax
c0001e38:	89 f3                	mov    %esi,%ebx
c0001e3a:	e8 43 f8 ff ff       	call   c0001682 <put_str>
c0001e3f:	83 c4 10             	add    $0x10,%esp
c0001e42:	83 ec 0c             	sub    $0xc,%esp
c0001e45:	8d 86 68 e3 ff ff    	lea    -0x1c98(%esi),%eax
c0001e4b:	50                   	push   %eax
c0001e4c:	89 f3                	mov    %esi,%ebx
c0001e4e:	e8 2f f8 ff ff       	call   c0001682 <put_str>
c0001e53:	83 c4 10             	add    $0x10,%esp
c0001e56:	eb fe                	jmp    c0001e56 <general_interrupt_handler+0xa4>

c0001e58 <init_int_content_entry_array>:
c0001e58:	55                   	push   %ebp
c0001e59:	89 e5                	mov    %esp,%ebp
c0001e5b:	53                   	push   %ebx
c0001e5c:	83 ec 10             	sub    $0x10,%esp
c0001e5f:	e8 6c 01 00 00       	call   c0001fd0 <__x86.get_pc_thunk.ax>
c0001e64:	05 9c 31 00 00       	add    $0x319c,%eax
c0001e69:	c7 45 f8 00 00 00 00 	movl   $0x0,-0x8(%ebp)
c0001e70:	eb 16                	jmp    c0001e88 <init_int_content_entry_array+0x30>
c0001e72:	c7 c2 00 52 00 c0    	mov    $0xc0005200,%edx
c0001e78:	8b 4d f8             	mov    -0x8(%ebp),%ecx
c0001e7b:	8d 98 b2 cd ff ff    	lea    -0x324e(%eax),%ebx
c0001e81:	89 1c 8a             	mov    %ebx,(%edx,%ecx,4)
c0001e84:	83 45 f8 01          	addl   $0x1,-0x8(%ebp)
c0001e88:	83 7d f8 20          	cmpl   $0x20,-0x8(%ebp)
c0001e8c:	7e e4                	jle    c0001e72 <init_int_content_entry_array+0x1a>
c0001e8e:	c7 c2 00 52 00 c0    	mov    $0xc0005200,%edx
c0001e94:	c7 c0 c7 2b 00 c0    	mov    $0xc0002bc7,%eax
c0001e9a:	89 82 80 00 00 00    	mov    %eax,0x80(%edx)
c0001ea0:	90                   	nop
c0001ea1:	83 c4 10             	add    $0x10,%esp
c0001ea4:	5b                   	pop    %ebx
c0001ea5:	5d                   	pop    %ebp
c0001ea6:	c3                   	ret    

c0001ea7 <set_clock_frequency>:
c0001ea7:	55                   	push   %ebp
c0001ea8:	89 e5                	mov    %esp,%ebp
c0001eaa:	e8 21 01 00 00       	call   c0001fd0 <__x86.get_pc_thunk.ax>
c0001eaf:	05 51 31 00 00       	add    $0x3151,%eax
c0001eb4:	6a 43                	push   $0x43
c0001eb6:	6a 34                	push   $0x34
c0001eb8:	e8 b1 fd ff ff       	call   c0001c6e <outb>
c0001ebd:	83 c4 08             	add    $0x8,%esp
c0001ec0:	6a 40                	push   $0x40
c0001ec2:	68 9b 00 00 00       	push   $0x9b
c0001ec7:	e8 a2 fd ff ff       	call   c0001c6e <outb>
c0001ecc:	83 c4 08             	add    $0x8,%esp
c0001ecf:	6a 40                	push   $0x40
c0001ed1:	6a 2e                	push   $0x2e
c0001ed3:	e8 96 fd ff ff       	call   c0001c6e <outb>
c0001ed8:	83 c4 08             	add    $0x8,%esp
c0001edb:	90                   	nop
c0001edc:	c9                   	leave  
c0001edd:	c3                   	ret    

c0001ede <init_interrupt>:
c0001ede:	55                   	push   %ebp
c0001edf:	89 e5                	mov    %esp,%ebp
c0001ee1:	53                   	push   %ebx
c0001ee2:	83 ec 14             	sub    $0x14,%esp
c0001ee5:	e8 25 f7 ff ff       	call   c000160f <__x86.get_pc_thunk.bx>
c0001eea:	81 c3 16 31 00 00    	add    $0x3116,%ebx
c0001ef0:	c7 c0 e0 51 00 c0    	mov    $0xc00051e0,%eax
c0001ef6:	c7 00 00 00 00 00    	movl   $0x0,(%eax)
c0001efc:	e8 96 fd ff ff       	call   c0001c97 <init_8259A>
c0001f01:	e8 2e fe ff ff       	call   c0001d34 <init_idt>
c0001f06:	e8 4d ff ff ff       	call   c0001e58 <init_int_content_entry_array>
c0001f0b:	8d 83 c0 00 00 00    	lea    0xc0(%ebx),%eax
c0001f11:	89 c1                	mov    %eax,%ecx
c0001f13:	bb 00 00 00 00       	mov    $0x0,%ebx
c0001f18:	89 c8                	mov    %ecx,%eax
c0001f1a:	89 da                	mov    %ebx,%edx
c0001f1c:	0f a4 c2 10          	shld   $0x10,%eax,%edx
c0001f20:	c1 e0 10             	shl    $0x10,%eax
c0001f23:	05 07 01 00 00       	add    $0x107,%eax
c0001f28:	83 d2 00             	adc    $0x0,%edx
c0001f2b:	89 45 f0             	mov    %eax,-0x10(%ebp)
c0001f2e:	89 55 f4             	mov    %edx,-0xc(%ebp)
c0001f31:	0f 01 5d f0          	lidtl  -0x10(%ebp)
c0001f35:	e8 6d ff ff ff       	call   c0001ea7 <set_clock_frequency>
c0001f3a:	90                   	nop
c0001f3b:	83 c4 14             	add    $0x14,%esp
c0001f3e:	5b                   	pop    %ebx
c0001f3f:	5d                   	pop    %ebp
c0001f40:	c3                   	ret    

c0001f41 <get_intr_status>:
c0001f41:	55                   	push   %ebp
c0001f42:	89 e5                	mov    %esp,%ebp
c0001f44:	83 ec 10             	sub    $0x10,%esp
c0001f47:	e8 84 00 00 00       	call   c0001fd0 <__x86.get_pc_thunk.ax>
c0001f4c:	05 b4 30 00 00       	add    $0x30b4,%eax
c0001f51:	9c                   	pushf  
c0001f52:	58                   	pop    %eax
c0001f53:	89 45 fc             	mov    %eax,-0x4(%ebp)
c0001f56:	8b 45 fc             	mov    -0x4(%ebp),%eax
c0001f59:	25 00 02 00 00       	and    $0x200,%eax
c0001f5e:	85 c0                	test   %eax,%eax
c0001f60:	75 07                	jne    c0001f69 <get_intr_status+0x28>
c0001f62:	b8 01 00 00 00       	mov    $0x1,%eax
c0001f67:	eb 05                	jmp    c0001f6e <get_intr_status+0x2d>
c0001f69:	b8 00 00 00 00       	mov    $0x0,%eax
c0001f6e:	c9                   	leave  
c0001f6f:	c3                   	ret    

c0001f70 <set_intr_status>:
c0001f70:	55                   	push   %ebp
c0001f71:	89 e5                	mov    %esp,%ebp
c0001f73:	83 ec 08             	sub    $0x8,%esp
c0001f76:	e8 55 00 00 00       	call   c0001fd0 <__x86.get_pc_thunk.ax>
c0001f7b:	05 85 30 00 00       	add    $0x3085,%eax
c0001f80:	83 7d 08 00          	cmpl   $0x0,0x8(%ebp)
c0001f84:	75 07                	jne    c0001f8d <set_intr_status+0x1d>
c0001f86:	e8 09 00 00 00       	call   c0001f94 <enable_intr>
c0001f8b:	eb 05                	jmp    c0001f92 <set_intr_status+0x22>
c0001f8d:	e8 20 00 00 00       	call   c0001fb2 <disable_intr>
c0001f92:	c9                   	leave  
c0001f93:	c3                   	ret    

c0001f94 <enable_intr>:
c0001f94:	55                   	push   %ebp
c0001f95:	89 e5                	mov    %esp,%ebp
c0001f97:	83 ec 10             	sub    $0x10,%esp
c0001f9a:	e8 31 00 00 00       	call   c0001fd0 <__x86.get_pc_thunk.ax>
c0001f9f:	05 61 30 00 00       	add    $0x3061,%eax
c0001fa4:	e8 98 ff ff ff       	call   c0001f41 <get_intr_status>
c0001fa9:	89 45 fc             	mov    %eax,-0x4(%ebp)
c0001fac:	fb                   	sti    
c0001fad:	8b 45 fc             	mov    -0x4(%ebp),%eax
c0001fb0:	c9                   	leave  
c0001fb1:	c3                   	ret    

c0001fb2 <disable_intr>:
c0001fb2:	55                   	push   %ebp
c0001fb3:	89 e5                	mov    %esp,%ebp
c0001fb5:	83 ec 10             	sub    $0x10,%esp
c0001fb8:	e8 13 00 00 00       	call   c0001fd0 <__x86.get_pc_thunk.ax>
c0001fbd:	05 43 30 00 00       	add    $0x3043,%eax
c0001fc2:	e8 7a ff ff ff       	call   c0001f41 <get_intr_status>
c0001fc7:	89 45 fc             	mov    %eax,-0x4(%ebp)
c0001fca:	fa                   	cli    
c0001fcb:	8b 45 fc             	mov    -0x4(%ebp),%eax
c0001fce:	c9                   	leave  
c0001fcf:	c3                   	ret    

c0001fd0 <__x86.get_pc_thunk.ax>:
c0001fd0:	8b 04 24             	mov    (%esp),%eax
c0001fd3:	c3                   	ret    

c0001fd4 <__x86.get_pc_thunk.si>:
c0001fd4:	8b 34 24             	mov    (%esp),%esi
c0001fd7:	c3                   	ret    

c0001fd8 <panic_spin>:
c0001fd8:	55                   	push   %ebp
c0001fd9:	89 e5                	mov    %esp,%ebp
c0001fdb:	53                   	push   %ebx
c0001fdc:	83 ec 04             	sub    $0x4,%esp
c0001fdf:	e8 2b f6 ff ff       	call   c000160f <__x86.get_pc_thunk.bx>
c0001fe4:	81 c3 1c 30 00 00    	add    $0x301c,%ebx
c0001fea:	e8 c3 ff ff ff       	call   c0001fb2 <disable_intr>
c0001fef:	83 ec 0c             	sub    $0xc,%esp
c0001ff2:	8d 83 8f e3 ff ff    	lea    -0x1c71(%ebx),%eax
c0001ff8:	50                   	push   %eax
c0001ff9:	e8 84 f6 ff ff       	call   c0001682 <put_str>
c0001ffe:	83 c4 10             	add    $0x10,%esp
c0002001:	83 ec 0c             	sub    $0xc,%esp
c0002004:	ff 75 08             	pushl  0x8(%ebp)
c0002007:	e8 76 f6 ff ff       	call   c0001682 <put_str>
c000200c:	83 c4 10             	add    $0x10,%esp
c000200f:	83 ec 0c             	sub    $0xc,%esp
c0002012:	8d 83 9f e3 ff ff    	lea    -0x1c61(%ebx),%eax
c0002018:	50                   	push   %eax
c0002019:	e8 64 f6 ff ff       	call   c0001682 <put_str>
c000201e:	83 c4 10             	add    $0x10,%esp
c0002021:	83 ec 0c             	sub    $0xc,%esp
c0002024:	ff 75 0c             	pushl  0xc(%ebp)
c0002027:	e8 fd f5 ff ff       	call   c0001629 <put_int>
c000202c:	83 c4 10             	add    $0x10,%esp
c000202f:	83 ec 0c             	sub    $0xc,%esp
c0002032:	8d 83 a9 e3 ff ff    	lea    -0x1c57(%ebx),%eax
c0002038:	50                   	push   %eax
c0002039:	e8 44 f6 ff ff       	call   c0001682 <put_str>
c000203e:	83 c4 10             	add    $0x10,%esp
c0002041:	83 ec 0c             	sub    $0xc,%esp
c0002044:	ff 75 10             	pushl  0x10(%ebp)
c0002047:	e8 36 f6 ff ff       	call   c0001682 <put_str>
c000204c:	83 c4 10             	add    $0x10,%esp
c000204f:	83 ec 0c             	sub    $0xc,%esp
c0002052:	8d 83 a9 e3 ff ff    	lea    -0x1c57(%ebx),%eax
c0002058:	50                   	push   %eax
c0002059:	e8 24 f6 ff ff       	call   c0001682 <put_str>
c000205e:	83 c4 10             	add    $0x10,%esp
c0002061:	eb fe                	jmp    c0002061 <panic_spin+0x89>

c0002063 <memset>:
c0002063:	55                   	push   %ebp
c0002064:	89 e5                	mov    %esp,%ebp
c0002066:	53                   	push   %ebx
c0002067:	83 ec 14             	sub    $0x14,%esp
c000206a:	e8 61 ff ff ff       	call   c0001fd0 <__x86.get_pc_thunk.ax>
c000206f:	05 91 2f 00 00       	add    $0x2f91,%eax
c0002074:	83 7d 08 00          	cmpl   $0x0,0x8(%ebp)
c0002078:	75 1d                	jne    c0002097 <memset+0x34>
c000207a:	83 ec 04             	sub    $0x4,%esp
c000207d:	8d 90 ab e3 ff ff    	lea    -0x1c55(%eax),%edx
c0002083:	52                   	push   %edx
c0002084:	6a 06                	push   $0x6
c0002086:	8d 90 b3 e3 ff ff    	lea    -0x1c4d(%eax),%edx
c000208c:	52                   	push   %edx
c000208d:	89 c3                	mov    %eax,%ebx
c000208f:	e8 44 ff ff ff       	call   c0001fd8 <panic_spin>
c0002094:	83 c4 10             	add    $0x10,%esp
c0002097:	8b 45 08             	mov    0x8(%ebp),%eax
c000209a:	89 45 f4             	mov    %eax,-0xc(%ebp)
c000209d:	c7 45 f0 00 00 00 00 	movl   $0x0,-0x10(%ebp)
c00020a4:	eb 11                	jmp    c00020b7 <memset+0x54>
c00020a6:	8b 55 f4             	mov    -0xc(%ebp),%edx
c00020a9:	8b 45 f0             	mov    -0x10(%ebp),%eax
c00020ac:	01 d0                	add    %edx,%eax
c00020ae:	8b 55 0c             	mov    0xc(%ebp),%edx
c00020b1:	88 10                	mov    %dl,(%eax)
c00020b3:	83 45 f0 01          	addl   $0x1,-0x10(%ebp)
c00020b7:	8b 45 f0             	mov    -0x10(%ebp),%eax
c00020ba:	3b 45 10             	cmp    0x10(%ebp),%eax
c00020bd:	72 e7                	jb     c00020a6 <memset+0x43>
c00020bf:	8b 45 08             	mov    0x8(%ebp),%eax
c00020c2:	8b 5d fc             	mov    -0x4(%ebp),%ebx
c00020c5:	c9                   	leave  
c00020c6:	c3                   	ret    

c00020c7 <memcpy>:
c00020c7:	55                   	push   %ebp
c00020c8:	89 e5                	mov    %esp,%ebp
c00020ca:	53                   	push   %ebx
c00020cb:	83 ec 14             	sub    $0x14,%esp
c00020ce:	e8 fd fe ff ff       	call   c0001fd0 <__x86.get_pc_thunk.ax>
c00020d3:	05 2d 2f 00 00       	add    $0x2f2d,%eax
c00020d8:	83 7d 08 00          	cmpl   $0x0,0x8(%ebp)
c00020dc:	74 06                	je     c00020e4 <memcpy+0x1d>
c00020de:	83 7d 0c 00          	cmpl   $0x0,0xc(%ebp)
c00020e2:	75 1d                	jne    c0002101 <memcpy+0x3a>
c00020e4:	83 ec 04             	sub    $0x4,%esp
c00020e7:	8d 90 c0 e3 ff ff    	lea    -0x1c40(%eax),%edx
c00020ed:	52                   	push   %edx
c00020ee:	6a 13                	push   $0x13
c00020f0:	8d 90 b3 e3 ff ff    	lea    -0x1c4d(%eax),%edx
c00020f6:	52                   	push   %edx
c00020f7:	89 c3                	mov    %eax,%ebx
c00020f9:	e8 da fe ff ff       	call   c0001fd8 <panic_spin>
c00020fe:	83 c4 10             	add    $0x10,%esp
c0002101:	8b 45 08             	mov    0x8(%ebp),%eax
c0002104:	89 45 f0             	mov    %eax,-0x10(%ebp)
c0002107:	8b 45 0c             	mov    0xc(%ebp),%eax
c000210a:	89 45 f4             	mov    %eax,-0xc(%ebp)
c000210d:	c7 45 ec 00 00 00 00 	movl   $0x0,-0x14(%ebp)
c0002114:	eb 19                	jmp    c000212f <memcpy+0x68>
c0002116:	8b 55 f4             	mov    -0xc(%ebp),%edx
c0002119:	8b 45 ec             	mov    -0x14(%ebp),%eax
c000211c:	01 d0                	add    %edx,%eax
c000211e:	8b 4d f0             	mov    -0x10(%ebp),%ecx
c0002121:	8b 55 ec             	mov    -0x14(%ebp),%edx
c0002124:	01 ca                	add    %ecx,%edx
c0002126:	0f b6 00             	movzbl (%eax),%eax
c0002129:	88 02                	mov    %al,(%edx)
c000212b:	83 45 ec 01          	addl   $0x1,-0x14(%ebp)
c000212f:	8b 45 ec             	mov    -0x14(%ebp),%eax
c0002132:	3b 45 10             	cmp    0x10(%ebp),%eax
c0002135:	72 df                	jb     c0002116 <memcpy+0x4f>
c0002137:	8b 45 08             	mov    0x8(%ebp),%eax
c000213a:	8b 5d fc             	mov    -0x4(%ebp),%ebx
c000213d:	c9                   	leave  
c000213e:	c3                   	ret    

c000213f <memcmp>:
c000213f:	55                   	push   %ebp
c0002140:	89 e5                	mov    %esp,%ebp
c0002142:	53                   	push   %ebx
c0002143:	83 ec 14             	sub    $0x14,%esp
c0002146:	e8 85 fe ff ff       	call   c0001fd0 <__x86.get_pc_thunk.ax>
c000214b:	05 b5 2e 00 00       	add    $0x2eb5,%eax
c0002150:	83 7d 08 00          	cmpl   $0x0,0x8(%ebp)
c0002154:	74 06                	je     c000215c <memcmp+0x1d>
c0002156:	83 7d 0c 00          	cmpl   $0x0,0xc(%ebp)
c000215a:	75 1d                	jne    c0002179 <memcmp+0x3a>
c000215c:	83 ec 04             	sub    $0x4,%esp
c000215f:	8d 90 d9 e3 ff ff    	lea    -0x1c27(%eax),%edx
c0002165:	52                   	push   %edx
c0002166:	6a 20                	push   $0x20
c0002168:	8d 90 b3 e3 ff ff    	lea    -0x1c4d(%eax),%edx
c000216e:	52                   	push   %edx
c000216f:	89 c3                	mov    %eax,%ebx
c0002171:	e8 62 fe ff ff       	call   c0001fd8 <panic_spin>
c0002176:	83 c4 10             	add    $0x10,%esp
c0002179:	8b 45 08             	mov    0x8(%ebp),%eax
c000217c:	89 45 f0             	mov    %eax,-0x10(%ebp)
c000217f:	8b 45 0c             	mov    0xc(%ebp),%eax
c0002182:	89 45 f4             	mov    %eax,-0xc(%ebp)
c0002185:	c7 45 ec 00 00 00 00 	movl   $0x0,-0x14(%ebp)
c000218c:	eb 42                	jmp    c00021d0 <memcmp+0x91>
c000218e:	8b 55 f0             	mov    -0x10(%ebp),%edx
c0002191:	8b 45 ec             	mov    -0x14(%ebp),%eax
c0002194:	01 d0                	add    %edx,%eax
c0002196:	0f b6 10             	movzbl (%eax),%edx
c0002199:	8b 4d f4             	mov    -0xc(%ebp),%ecx
c000219c:	8b 45 ec             	mov    -0x14(%ebp),%eax
c000219f:	01 c8                	add    %ecx,%eax
c00021a1:	0f b6 00             	movzbl (%eax),%eax
c00021a4:	38 c2                	cmp    %al,%dl
c00021a6:	75 06                	jne    c00021ae <memcmp+0x6f>
c00021a8:	83 45 ec 01          	addl   $0x1,-0x14(%ebp)
c00021ac:	eb 22                	jmp    c00021d0 <memcmp+0x91>
c00021ae:	8b 55 f0             	mov    -0x10(%ebp),%edx
c00021b1:	8b 45 ec             	mov    -0x14(%ebp),%eax
c00021b4:	01 d0                	add    %edx,%eax
c00021b6:	0f b6 00             	movzbl (%eax),%eax
c00021b9:	0f b6 d0             	movzbl %al,%edx
c00021bc:	8b 4d f4             	mov    -0xc(%ebp),%ecx
c00021bf:	8b 45 ec             	mov    -0x14(%ebp),%eax
c00021c2:	01 c8                	add    %ecx,%eax
c00021c4:	0f b6 00             	movzbl (%eax),%eax
c00021c7:	0f b6 c0             	movzbl %al,%eax
c00021ca:	29 c2                	sub    %eax,%edx
c00021cc:	89 d0                	mov    %edx,%eax
c00021ce:	eb 0d                	jmp    c00021dd <memcmp+0x9e>
c00021d0:	8b 45 ec             	mov    -0x14(%ebp),%eax
c00021d3:	3b 45 10             	cmp    0x10(%ebp),%eax
c00021d6:	72 b6                	jb     c000218e <memcmp+0x4f>
c00021d8:	b8 00 00 00 00       	mov    $0x0,%eax
c00021dd:	8b 5d fc             	mov    -0x4(%ebp),%ebx
c00021e0:	c9                   	leave  
c00021e1:	c3                   	ret    

c00021e2 <set_bit_bm>:
c00021e2:	55                   	push   %ebp
c00021e3:	89 e5                	mov    %esp,%ebp
c00021e5:	53                   	push   %ebx
c00021e6:	83 ec 10             	sub    $0x10,%esp
c00021e9:	e8 e2 fd ff ff       	call   c0001fd0 <__x86.get_pc_thunk.ax>
c00021ee:	05 12 2e 00 00       	add    $0x2e12,%eax
c00021f3:	8b 45 0c             	mov    0xc(%ebp),%eax
c00021f6:	8d 50 07             	lea    0x7(%eax),%edx
c00021f9:	85 c0                	test   %eax,%eax
c00021fb:	0f 48 c2             	cmovs  %edx,%eax
c00021fe:	c1 f8 03             	sar    $0x3,%eax
c0002201:	89 45 f8             	mov    %eax,-0x8(%ebp)
c0002204:	8b 45 08             	mov    0x8(%ebp),%eax
c0002207:	8b 10                	mov    (%eax),%edx
c0002209:	8b 45 f8             	mov    -0x8(%ebp),%eax
c000220c:	01 d0                	add    %edx,%eax
c000220e:	0f b6 18             	movzbl (%eax),%ebx
c0002211:	8b 45 0c             	mov    0xc(%ebp),%eax
c0002214:	99                   	cltd   
c0002215:	c1 ea 1d             	shr    $0x1d,%edx
c0002218:	01 d0                	add    %edx,%eax
c000221a:	83 e0 07             	and    $0x7,%eax
c000221d:	29 d0                	sub    %edx,%eax
c000221f:	ba 01 00 00 00       	mov    $0x1,%edx
c0002224:	89 c1                	mov    %eax,%ecx
c0002226:	d3 e2                	shl    %cl,%edx
c0002228:	89 d0                	mov    %edx,%eax
c000222a:	89 c1                	mov    %eax,%ecx
c000222c:	8b 45 08             	mov    0x8(%ebp),%eax
c000222f:	8b 10                	mov    (%eax),%edx
c0002231:	8b 45 f8             	mov    -0x8(%ebp),%eax
c0002234:	01 d0                	add    %edx,%eax
c0002236:	09 cb                	or     %ecx,%ebx
c0002238:	89 da                	mov    %ebx,%edx
c000223a:	88 10                	mov    %dl,(%eax)
c000223c:	90                   	nop
c000223d:	83 c4 10             	add    $0x10,%esp
c0002240:	5b                   	pop    %ebx
c0002241:	5d                   	pop    %ebp
c0002242:	c3                   	ret    

c0002243 <clear_bit_bm>:
c0002243:	55                   	push   %ebp
c0002244:	89 e5                	mov    %esp,%ebp
c0002246:	53                   	push   %ebx
c0002247:	83 ec 10             	sub    $0x10,%esp
c000224a:	e8 81 fd ff ff       	call   c0001fd0 <__x86.get_pc_thunk.ax>
c000224f:	05 b1 2d 00 00       	add    $0x2db1,%eax
c0002254:	8b 45 0c             	mov    0xc(%ebp),%eax
c0002257:	8d 50 07             	lea    0x7(%eax),%edx
c000225a:	85 c0                	test   %eax,%eax
c000225c:	0f 48 c2             	cmovs  %edx,%eax
c000225f:	c1 f8 03             	sar    $0x3,%eax
c0002262:	89 45 f8             	mov    %eax,-0x8(%ebp)
c0002265:	8b 45 08             	mov    0x8(%ebp),%eax
c0002268:	8b 10                	mov    (%eax),%edx
c000226a:	8b 45 f8             	mov    -0x8(%ebp),%eax
c000226d:	01 d0                	add    %edx,%eax
c000226f:	0f b6 18             	movzbl (%eax),%ebx
c0002272:	8b 45 0c             	mov    0xc(%ebp),%eax
c0002275:	99                   	cltd   
c0002276:	c1 ea 1d             	shr    $0x1d,%edx
c0002279:	01 d0                	add    %edx,%eax
c000227b:	83 e0 07             	and    $0x7,%eax
c000227e:	29 d0                	sub    %edx,%eax
c0002280:	ba 01 00 00 00       	mov    $0x1,%edx
c0002285:	89 c1                	mov    %eax,%ecx
c0002287:	d3 e2                	shl    %cl,%edx
c0002289:	89 d0                	mov    %edx,%eax
c000228b:	f7 d0                	not    %eax
c000228d:	89 c1                	mov    %eax,%ecx
c000228f:	8b 45 08             	mov    0x8(%ebp),%eax
c0002292:	8b 10                	mov    (%eax),%edx
c0002294:	8b 45 f8             	mov    -0x8(%ebp),%eax
c0002297:	01 d0                	add    %edx,%eax
c0002299:	21 cb                	and    %ecx,%ebx
c000229b:	89 da                	mov    %ebx,%edx
c000229d:	88 10                	mov    %dl,(%eax)
c000229f:	90                   	nop
c00022a0:	83 c4 10             	add    $0x10,%esp
c00022a3:	5b                   	pop    %ebx
c00022a4:	5d                   	pop    %ebp
c00022a5:	c3                   	ret    

c00022a6 <get_bit_bm>:
c00022a6:	55                   	push   %ebp
c00022a7:	89 e5                	mov    %esp,%ebp
c00022a9:	53                   	push   %ebx
c00022aa:	83 ec 10             	sub    $0x10,%esp
c00022ad:	e8 1e fd ff ff       	call   c0001fd0 <__x86.get_pc_thunk.ax>
c00022b2:	05 4e 2d 00 00       	add    $0x2d4e,%eax
c00022b7:	8b 45 0c             	mov    0xc(%ebp),%eax
c00022ba:	8d 50 07             	lea    0x7(%eax),%edx
c00022bd:	85 c0                	test   %eax,%eax
c00022bf:	0f 48 c2             	cmovs  %edx,%eax
c00022c2:	c1 f8 03             	sar    $0x3,%eax
c00022c5:	89 45 f8             	mov    %eax,-0x8(%ebp)
c00022c8:	8b 45 08             	mov    0x8(%ebp),%eax
c00022cb:	8b 10                	mov    (%eax),%edx
c00022cd:	8b 45 f8             	mov    -0x8(%ebp),%eax
c00022d0:	01 d0                	add    %edx,%eax
c00022d2:	0f b6 00             	movzbl (%eax),%eax
c00022d5:	0f be d8             	movsbl %al,%ebx
c00022d8:	8b 45 0c             	mov    0xc(%ebp),%eax
c00022db:	99                   	cltd   
c00022dc:	c1 ea 1d             	shr    $0x1d,%edx
c00022df:	01 d0                	add    %edx,%eax
c00022e1:	83 e0 07             	and    $0x7,%eax
c00022e4:	29 d0                	sub    %edx,%eax
c00022e6:	89 c1                	mov    %eax,%ecx
c00022e8:	d3 fb                	sar    %cl,%ebx
c00022ea:	89 d8                	mov    %ebx,%eax
c00022ec:	83 e0 01             	and    $0x1,%eax
c00022ef:	85 c0                	test   %eax,%eax
c00022f1:	74 07                	je     c00022fa <get_bit_bm+0x54>
c00022f3:	b8 01 00 00 00       	mov    $0x1,%eax
c00022f8:	eb 05                	jmp    c00022ff <get_bit_bm+0x59>
c00022fa:	b8 00 00 00 00       	mov    $0x0,%eax
c00022ff:	83 c4 10             	add    $0x10,%esp
c0002302:	5b                   	pop    %ebx
c0002303:	5d                   	pop    %ebp
c0002304:	c3                   	ret    

c0002305 <scan_bm>:
c0002305:	55                   	push   %ebp
c0002306:	89 e5                	mov    %esp,%ebp
c0002308:	83 ec 10             	sub    $0x10,%esp
c000230b:	e8 c0 fc ff ff       	call   c0001fd0 <__x86.get_pc_thunk.ax>
c0002310:	05 f0 2c 00 00       	add    $0x2cf0,%eax
c0002315:	c7 45 f8 00 00 00 00 	movl   $0x0,-0x8(%ebp)
c000231c:	c7 45 fc 00 00 00 00 	movl   $0x0,-0x4(%ebp)
c0002323:	eb 24                	jmp    c0002349 <scan_bm+0x44>
c0002325:	ff 75 fc             	pushl  -0x4(%ebp)
c0002328:	ff 75 08             	pushl  0x8(%ebp)
c000232b:	e8 76 ff ff ff       	call   c00022a6 <get_bit_bm>
c0002330:	83 c4 08             	add    $0x8,%esp
c0002333:	83 f8 01             	cmp    $0x1,%eax
c0002336:	75 09                	jne    c0002341 <scan_bm+0x3c>
c0002338:	c7 45 f8 00 00 00 00 	movl   $0x0,-0x8(%ebp)
c000233f:	eb 04                	jmp    c0002345 <scan_bm+0x40>
c0002341:	83 45 f8 01          	addl   $0x1,-0x8(%ebp)
c0002345:	83 45 fc 01          	addl   $0x1,-0x4(%ebp)
c0002349:	8b 45 f8             	mov    -0x8(%ebp),%eax
c000234c:	3b 45 0c             	cmp    0xc(%ebp),%eax
c000234f:	73 14                	jae    c0002365 <scan_bm+0x60>
c0002351:	8b 45 08             	mov    0x8(%ebp),%eax
c0002354:	8b 40 04             	mov    0x4(%eax),%eax
c0002357:	8d 14 c5 00 00 00 00 	lea    0x0(,%eax,8),%edx
c000235e:	8b 45 fc             	mov    -0x4(%ebp),%eax
c0002361:	39 c2                	cmp    %eax,%edx
c0002363:	77 c0                	ja     c0002325 <scan_bm+0x20>
c0002365:	8b 45 f8             	mov    -0x8(%ebp),%eax
c0002368:	3b 45 0c             	cmp    0xc(%ebp),%eax
c000236b:	75 08                	jne    c0002375 <scan_bm+0x70>
c000236d:	8b 45 fc             	mov    -0x4(%ebp),%eax
c0002370:	2b 45 0c             	sub    0xc(%ebp),%eax
c0002373:	eb 05                	jmp    c000237a <scan_bm+0x75>
c0002375:	b8 ff ff ff ff       	mov    $0xffffffff,%eax
c000237a:	c9                   	leave  
c000237b:	c3                   	ret    

c000237c <init_pool>:
c000237c:	55                   	push   %ebp
c000237d:	89 e5                	mov    %esp,%ebp
c000237f:	53                   	push   %ebx
c0002380:	83 ec 14             	sub    $0x14,%esp
c0002383:	e8 87 f2 ff ff       	call   c000160f <__x86.get_pc_thunk.bx>
c0002388:	81 c3 78 2c 00 00    	add    $0x2c78,%ebx
c000238e:	83 ec 04             	sub    $0x4,%esp
c0002391:	68 00 40 00 00       	push   $0x4000
c0002396:	6a 00                	push   $0x0
c0002398:	68 00 a0 09 c0       	push   $0xc009a000
c000239d:	e8 c1 fc ff ff       	call   c0002063 <memset>
c00023a2:	83 c4 10             	add    $0x10,%esp
c00023a5:	b8 00 0b 00 00       	mov    $0xb00,%eax
c00023aa:	8b 00                	mov    (%eax),%eax
c00023ac:	05 00 00 10 00       	add    $0x100000,%eax
c00023b1:	89 45 ec             	mov    %eax,-0x14(%ebp)
c00023b4:	81 7d ec 00 00 00 08 	cmpl   $0x8000000,-0x14(%ebp)
c00023bb:	76 07                	jbe    c00023c4 <init_pool+0x48>
c00023bd:	c7 45 ec 00 00 00 08 	movl   $0x8000000,-0x14(%ebp)
c00023c4:	8b 45 ec             	mov    -0x14(%ebp),%eax
c00023c7:	2d 00 00 20 00       	sub    $0x200000,%eax
c00023cc:	d1 e8                	shr    %eax
c00023ce:	89 45 f0             	mov    %eax,-0x10(%ebp)
c00023d1:	8b 45 ec             	mov    -0x14(%ebp),%eax
c00023d4:	2b 45 f0             	sub    -0x10(%ebp),%eax
c00023d7:	2d 00 00 20 00       	sub    $0x200000,%eax
c00023dc:	89 45 f4             	mov    %eax,-0xc(%ebp)
c00023df:	c7 c0 ac 52 00 c0    	mov    $0xc00052ac,%eax
c00023e5:	c7 00 00 a0 09 c0    	movl   $0xc009a000,(%eax)
c00023eb:	8b 45 f0             	mov    -0x10(%ebp),%eax
c00023ee:	c1 e8 0f             	shr    $0xf,%eax
c00023f1:	89 c2                	mov    %eax,%edx
c00023f3:	c7 c0 ac 52 00 c0    	mov    $0xc00052ac,%eax
c00023f9:	89 50 04             	mov    %edx,0x4(%eax)
c00023fc:	c7 c0 ac 52 00 c0    	mov    $0xc00052ac,%eax
c0002402:	c7 40 08 00 00 20 00 	movl   $0x200000,0x8(%eax)
c0002409:	c7 c0 ac 52 00 c0    	mov    $0xc00052ac,%eax
c000240f:	8b 55 f0             	mov    -0x10(%ebp),%edx
c0002412:	89 50 0c             	mov    %edx,0xc(%eax)
c0002415:	c7 c0 ac 52 00 c0    	mov    $0xc00052ac,%eax
c000241b:	c7 40 10 00 00 00 00 	movl   $0x0,0x10(%eax)
c0002422:	c7 c0 ac 52 00 c0    	mov    $0xc00052ac,%eax
c0002428:	8b 40 04             	mov    0x4(%eax),%eax
c000242b:	2d 00 60 f6 3f       	sub    $0x3ff66000,%eax
c0002430:	89 c2                	mov    %eax,%edx
c0002432:	c7 c0 84 52 00 c0    	mov    $0xc0005284,%eax
c0002438:	89 10                	mov    %edx,(%eax)
c000243a:	8b 45 f4             	mov    -0xc(%ebp),%eax
c000243d:	c1 e8 0f             	shr    $0xf,%eax
c0002440:	89 c2                	mov    %eax,%edx
c0002442:	c7 c0 84 52 00 c0    	mov    $0xc0005284,%eax
c0002448:	89 50 04             	mov    %edx,0x4(%eax)
c000244b:	8b 45 f0             	mov    -0x10(%ebp),%eax
c000244e:	05 00 00 20 00       	add    $0x200000,%eax
c0002453:	89 c2                	mov    %eax,%edx
c0002455:	c7 c0 84 52 00 c0    	mov    $0xc0005284,%eax
c000245b:	89 50 08             	mov    %edx,0x8(%eax)
c000245e:	c7 c0 84 52 00 c0    	mov    $0xc0005284,%eax
c0002464:	8b 55 f4             	mov    -0xc(%ebp),%edx
c0002467:	89 50 0c             	mov    %edx,0xc(%eax)
c000246a:	c7 c0 84 52 00 c0    	mov    $0xc0005284,%eax
c0002470:	c7 40 10 00 00 00 00 	movl   $0x0,0x10(%eax)
c0002477:	c7 c0 ac 52 00 c0    	mov    $0xc00052ac,%eax
c000247d:	8b 50 04             	mov    0x4(%eax),%edx
c0002480:	c7 c0 84 52 00 c0    	mov    $0xc0005284,%eax
c0002486:	8b 40 04             	mov    0x4(%eax),%eax
c0002489:	01 d0                	add    %edx,%eax
c000248b:	8d 90 00 a0 09 c0    	lea    -0x3ff66000(%eax),%edx
c0002491:	c7 c0 98 52 00 c0    	mov    $0xc0005298,%eax
c0002497:	89 10                	mov    %edx,(%eax)
c0002499:	c7 c0 ac 52 00 c0    	mov    $0xc00052ac,%eax
c000249f:	8b 50 04             	mov    0x4(%eax),%edx
c00024a2:	c7 c0 98 52 00 c0    	mov    $0xc0005298,%eax
c00024a8:	89 50 04             	mov    %edx,0x4(%eax)
c00024ab:	c7 c0 98 52 00 c0    	mov    $0xc0005298,%eax
c00024b1:	c7 40 08 00 00 10 c0 	movl   $0xc0100000,0x8(%eax)
c00024b8:	c7 c0 98 52 00 c0    	mov    $0xc0005298,%eax
c00024be:	c7 40 0c 00 00 00 00 	movl   $0x0,0xc(%eax)
c00024c5:	c7 c0 98 52 00 c0    	mov    $0xc0005298,%eax
c00024cb:	c7 40 10 01 00 00 00 	movl   $0x1,0x10(%eax)
c00024d2:	e8 9a 02 00 00       	call   c0002771 <report_init_pool>
c00024d7:	90                   	nop
c00024d8:	8b 5d fc             	mov    -0x4(%ebp),%ebx
c00024db:	c9                   	leave  
c00024dc:	c3                   	ret    

c00024dd <malloc_page>:
c00024dd:	55                   	push   %ebp
c00024de:	89 e5                	mov    %esp,%ebp
c00024e0:	83 ec 18             	sub    $0x18,%esp
c00024e3:	e8 e8 fa ff ff       	call   c0001fd0 <__x86.get_pc_thunk.ax>
c00024e8:	05 18 2b 00 00       	add    $0x2b18,%eax
c00024ed:	83 ec 08             	sub    $0x8,%esp
c00024f0:	ff 75 0c             	pushl  0xc(%ebp)
c00024f3:	ff 75 08             	pushl  0x8(%ebp)
c00024f6:	e8 69 00 00 00       	call   c0002564 <valloc>
c00024fb:	83 c4 10             	add    $0x10,%esp
c00024fe:	89 45 f0             	mov    %eax,-0x10(%ebp)
c0002501:	8b 45 f0             	mov    -0x10(%ebp),%eax
c0002504:	89 45 e8             	mov    %eax,-0x18(%ebp)
c0002507:	83 7d e8 00          	cmpl   $0x0,-0x18(%ebp)
c000250b:	75 07                	jne    c0002514 <malloc_page+0x37>
c000250d:	b8 00 00 00 00       	mov    $0x0,%eax
c0002512:	eb 4e                	jmp    c0002562 <malloc_page+0x85>
c0002514:	c7 45 ec 00 00 00 00 	movl   $0x0,-0x14(%ebp)
c000251b:	eb 3a                	jmp    c0002557 <malloc_page+0x7a>
c000251d:	83 ec 0c             	sub    $0xc,%esp
c0002520:	ff 75 08             	pushl  0x8(%ebp)
c0002523:	e8 c0 00 00 00       	call   c00025e8 <palloc>
c0002528:	83 c4 10             	add    $0x10,%esp
c000252b:	89 45 f4             	mov    %eax,-0xc(%ebp)
c000252e:	83 7d f4 00          	cmpl   $0x0,-0xc(%ebp)
c0002532:	75 07                	jne    c000253b <malloc_page+0x5e>
c0002534:	b8 00 00 00 00       	mov    $0x0,%eax
c0002539:	eb 27                	jmp    c0002562 <malloc_page+0x85>
c000253b:	83 ec 08             	sub    $0x8,%esp
c000253e:	ff 75 f4             	pushl  -0xc(%ebp)
c0002541:	ff 75 e8             	pushl  -0x18(%ebp)
c0002544:	e8 1d 01 00 00       	call   c0002666 <build_mapping>
c0002549:	83 c4 10             	add    $0x10,%esp
c000254c:	81 45 e8 00 10 00 00 	addl   $0x1000,-0x18(%ebp)
c0002553:	83 45 ec 01          	addl   $0x1,-0x14(%ebp)
c0002557:	8b 45 ec             	mov    -0x14(%ebp),%eax
c000255a:	3b 45 0c             	cmp    0xc(%ebp),%eax
c000255d:	72 be                	jb     c000251d <malloc_page+0x40>
c000255f:	8b 45 f0             	mov    -0x10(%ebp),%eax
c0002562:	c9                   	leave  
c0002563:	c3                   	ret    

c0002564 <valloc>:
c0002564:	55                   	push   %ebp
c0002565:	89 e5                	mov    %esp,%ebp
c0002567:	53                   	push   %ebx
c0002568:	83 ec 10             	sub    $0x10,%esp
c000256b:	e8 9f f0 ff ff       	call   c000160f <__x86.get_pc_thunk.bx>
c0002570:	81 c3 90 2a 00 00    	add    $0x2a90,%ebx
c0002576:	83 7d 08 00          	cmpl   $0x0,0x8(%ebp)
c000257a:	75 62                	jne    c00025de <valloc+0x7a>
c000257c:	ff 75 0c             	pushl  0xc(%ebp)
c000257f:	c7 c0 98 52 00 c0    	mov    $0xc0005298,%eax
c0002585:	50                   	push   %eax
c0002586:	e8 7a fd ff ff       	call   c0002305 <scan_bm>
c000258b:	83 c4 08             	add    $0x8,%esp
c000258e:	89 45 f8             	mov    %eax,-0x8(%ebp)
c0002591:	83 7d f8 ff          	cmpl   $0xffffffff,-0x8(%ebp)
c0002595:	75 07                	jne    c000259e <valloc+0x3a>
c0002597:	b8 00 00 00 00       	mov    $0x0,%eax
c000259c:	eb 45                	jmp    c00025e3 <valloc+0x7f>
c000259e:	c7 45 f4 00 00 00 00 	movl   $0x0,-0xc(%ebp)
c00025a5:	eb 1c                	jmp    c00025c3 <valloc+0x5f>
c00025a7:	8b 55 f8             	mov    -0x8(%ebp),%edx
c00025aa:	8b 45 f4             	mov    -0xc(%ebp),%eax
c00025ad:	01 d0                	add    %edx,%eax
c00025af:	50                   	push   %eax
c00025b0:	c7 c0 98 52 00 c0    	mov    $0xc0005298,%eax
c00025b6:	50                   	push   %eax
c00025b7:	e8 26 fc ff ff       	call   c00021e2 <set_bit_bm>
c00025bc:	83 c4 08             	add    $0x8,%esp
c00025bf:	83 45 f4 01          	addl   $0x1,-0xc(%ebp)
c00025c3:	8b 45 f4             	mov    -0xc(%ebp),%eax
c00025c6:	3b 45 0c             	cmp    0xc(%ebp),%eax
c00025c9:	72 dc                	jb     c00025a7 <valloc+0x43>
c00025cb:	c7 c0 98 52 00 c0    	mov    $0xc0005298,%eax
c00025d1:	8b 40 08             	mov    0x8(%eax),%eax
c00025d4:	8b 55 f8             	mov    -0x8(%ebp),%edx
c00025d7:	c1 e2 0c             	shl    $0xc,%edx
c00025da:	01 d0                	add    %edx,%eax
c00025dc:	eb 05                	jmp    c00025e3 <valloc+0x7f>
c00025de:	b8 00 00 00 00       	mov    $0x0,%eax
c00025e3:	8b 5d fc             	mov    -0x4(%ebp),%ebx
c00025e6:	c9                   	leave  
c00025e7:	c3                   	ret    

c00025e8 <palloc>:
c00025e8:	55                   	push   %ebp
c00025e9:	89 e5                	mov    %esp,%ebp
c00025eb:	83 ec 10             	sub    $0x10,%esp
c00025ee:	e8 dd f9 ff ff       	call   c0001fd0 <__x86.get_pc_thunk.ax>
c00025f3:	05 0d 2a 00 00       	add    $0x2a0d,%eax
c00025f8:	83 7d 08 00          	cmpl   $0x0,0x8(%ebp)
c00025fc:	75 08                	jne    c0002606 <palloc+0x1e>
c00025fe:	c7 c2 ac 52 00 c0    	mov    $0xc00052ac,%edx
c0002604:	eb 06                	jmp    c000260c <palloc+0x24>
c0002606:	c7 c2 84 52 00 c0    	mov    $0xc0005284,%edx
c000260c:	89 55 f4             	mov    %edx,-0xc(%ebp)
c000260f:	83 7d 08 00          	cmpl   $0x0,0x8(%ebp)
c0002613:	75 0b                	jne    c0002620 <palloc+0x38>
c0002615:	c7 c0 ac 52 00 c0    	mov    $0xc00052ac,%eax
c000261b:	8b 40 08             	mov    0x8(%eax),%eax
c000261e:	eb 09                	jmp    c0002629 <palloc+0x41>
c0002620:	c7 c0 84 52 00 c0    	mov    $0xc0005284,%eax
c0002626:	8b 40 08             	mov    0x8(%eax),%eax
c0002629:	89 45 f8             	mov    %eax,-0x8(%ebp)
c000262c:	6a 01                	push   $0x1
c000262e:	ff 75 f4             	pushl  -0xc(%ebp)
c0002631:	e8 cf fc ff ff       	call   c0002305 <scan_bm>
c0002636:	83 c4 08             	add    $0x8,%esp
c0002639:	89 45 fc             	mov    %eax,-0x4(%ebp)
c000263c:	83 7d fc ff          	cmpl   $0xffffffff,-0x4(%ebp)
c0002640:	75 07                	jne    c0002649 <palloc+0x61>
c0002642:	b8 00 00 00 00       	mov    $0x0,%eax
c0002647:	eb 1b                	jmp    c0002664 <palloc+0x7c>
c0002649:	ff 75 fc             	pushl  -0x4(%ebp)
c000264c:	ff 75 f4             	pushl  -0xc(%ebp)
c000264f:	e8 8e fb ff ff       	call   c00021e2 <set_bit_bm>
c0002654:	83 c4 08             	add    $0x8,%esp
c0002657:	8b 45 fc             	mov    -0x4(%ebp),%eax
c000265a:	c1 e0 0c             	shl    $0xc,%eax
c000265d:	89 c2                	mov    %eax,%edx
c000265f:	8b 45 f8             	mov    -0x8(%ebp),%eax
c0002662:	01 d0                	add    %edx,%eax
c0002664:	c9                   	leave  
c0002665:	c3                   	ret    

c0002666 <build_mapping>:
c0002666:	55                   	push   %ebp
c0002667:	89 e5                	mov    %esp,%ebp
c0002669:	53                   	push   %ebx
c000266a:	83 ec 14             	sub    $0x14,%esp
c000266d:	e8 9d ef ff ff       	call   c000160f <__x86.get_pc_thunk.bx>
c0002672:	81 c3 8e 29 00 00    	add    $0x298e,%ebx
c0002678:	83 ec 0c             	sub    $0xc,%esp
c000267b:	ff 75 08             	pushl  0x8(%ebp)
c000267e:	e8 92 00 00 00       	call   c0002715 <get_pde_addr>
c0002683:	83 c4 10             	add    $0x10,%esp
c0002686:	89 45 ec             	mov    %eax,-0x14(%ebp)
c0002689:	83 ec 0c             	sub    $0xc,%esp
c000268c:	ff 75 08             	pushl  0x8(%ebp)
c000268f:	e8 a7 00 00 00       	call   c000273b <get_pte_addr>
c0002694:	83 c4 10             	add    $0x10,%esp
c0002697:	89 45 f0             	mov    %eax,-0x10(%ebp)
c000269a:	8b 45 ec             	mov    -0x14(%ebp),%eax
c000269d:	8b 00                	mov    (%eax),%eax
c000269f:	83 e0 01             	and    $0x1,%eax
c00026a2:	85 c0                	test   %eax,%eax
c00026a4:	75 5c                	jne    c0002702 <build_mapping+0x9c>
c00026a6:	83 ec 0c             	sub    $0xc,%esp
c00026a9:	6a 00                	push   $0x0
c00026ab:	e8 38 ff ff ff       	call   c00025e8 <palloc>
c00026b0:	83 c4 10             	add    $0x10,%esp
c00026b3:	89 45 f4             	mov    %eax,-0xc(%ebp)
c00026b6:	83 7d f4 00          	cmpl   $0x0,-0xc(%ebp)
c00026ba:	75 1e                	jne    c00026da <build_mapping+0x74>
c00026bc:	83 ec 04             	sub    $0x4,%esp
c00026bf:	8d 83 f0 e3 ff ff    	lea    -0x1c10(%ebx),%eax
c00026c5:	50                   	push   %eax
c00026c6:	68 ab 00 00 00       	push   $0xab
c00026cb:	8d 83 ff e3 ff ff    	lea    -0x1c01(%ebx),%eax
c00026d1:	50                   	push   %eax
c00026d2:	e8 01 f9 ff ff       	call   c0001fd8 <panic_spin>
c00026d7:	83 c4 10             	add    $0x10,%esp
c00026da:	8b 45 f4             	mov    -0xc(%ebp),%eax
c00026dd:	83 c8 03             	or     $0x3,%eax
c00026e0:	89 c2                	mov    %eax,%edx
c00026e2:	8b 45 ec             	mov    -0x14(%ebp),%eax
c00026e5:	89 10                	mov    %edx,(%eax)
c00026e7:	8b 45 f0             	mov    -0x10(%ebp),%eax
c00026ea:	25 00 f0 ff ff       	and    $0xfffff000,%eax
c00026ef:	83 ec 04             	sub    $0x4,%esp
c00026f2:	68 00 10 00 00       	push   $0x1000
c00026f7:	6a 00                	push   $0x0
c00026f9:	50                   	push   %eax
c00026fa:	e8 64 f9 ff ff       	call   c0002063 <memset>
c00026ff:	83 c4 10             	add    $0x10,%esp
c0002702:	8b 45 0c             	mov    0xc(%ebp),%eax
c0002705:	83 c8 03             	or     $0x3,%eax
c0002708:	89 c2                	mov    %eax,%edx
c000270a:	8b 45 f0             	mov    -0x10(%ebp),%eax
c000270d:	89 10                	mov    %edx,(%eax)
c000270f:	90                   	nop
c0002710:	8b 5d fc             	mov    -0x4(%ebp),%ebx
c0002713:	c9                   	leave  
c0002714:	c3                   	ret    

c0002715 <get_pde_addr>:
c0002715:	55                   	push   %ebp
c0002716:	89 e5                	mov    %esp,%ebp
c0002718:	83 ec 10             	sub    $0x10,%esp
c000271b:	e8 b0 f8 ff ff       	call   c0001fd0 <__x86.get_pc_thunk.ax>
c0002720:	05 e0 28 00 00       	add    $0x28e0,%eax
c0002725:	8b 45 08             	mov    0x8(%ebp),%eax
c0002728:	89 45 fc             	mov    %eax,-0x4(%ebp)
c000272b:	8b 45 fc             	mov    -0x4(%ebp),%eax
c000272e:	c1 e8 16             	shr    $0x16,%eax
c0002731:	c1 e0 02             	shl    $0x2,%eax
c0002734:	0d 00 f0 ff ff       	or     $0xfffff000,%eax
c0002739:	c9                   	leave  
c000273a:	c3                   	ret    

c000273b <get_pte_addr>:
c000273b:	55                   	push   %ebp
c000273c:	89 e5                	mov    %esp,%ebp
c000273e:	83 ec 10             	sub    $0x10,%esp
c0002741:	e8 8a f8 ff ff       	call   c0001fd0 <__x86.get_pc_thunk.ax>
c0002746:	05 ba 28 00 00       	add    $0x28ba,%eax
c000274b:	8b 45 08             	mov    0x8(%ebp),%eax
c000274e:	89 45 fc             	mov    %eax,-0x4(%ebp)
c0002751:	8b 45 fc             	mov    -0x4(%ebp),%eax
c0002754:	c1 e8 16             	shr    $0x16,%eax
c0002757:	c1 e0 0c             	shl    $0xc,%eax
c000275a:	89 c2                	mov    %eax,%edx
c000275c:	8b 45 fc             	mov    -0x4(%ebp),%eax
c000275f:	c1 e0 0a             	shl    $0xa,%eax
c0002762:	c1 e8 16             	shr    $0x16,%eax
c0002765:	c1 e0 02             	shl    $0x2,%eax
c0002768:	09 d0                	or     %edx,%eax
c000276a:	0d 00 00 c0 ff       	or     $0xffc00000,%eax
c000276f:	c9                   	leave  
c0002770:	c3                   	ret    

c0002771 <report_init_pool>:
c0002771:	55                   	push   %ebp
c0002772:	89 e5                	mov    %esp,%ebp
c0002774:	53                   	push   %ebx
c0002775:	83 ec 04             	sub    $0x4,%esp
c0002778:	e8 92 ee ff ff       	call   c000160f <__x86.get_pc_thunk.bx>
c000277d:	81 c3 83 28 00 00    	add    $0x2883,%ebx
c0002783:	83 ec 0c             	sub    $0xc,%esp
c0002786:	8d 83 08 e4 ff ff    	lea    -0x1bf8(%ebx),%eax
c000278c:	50                   	push   %eax
c000278d:	e8 f0 ee ff ff       	call   c0001682 <put_str>
c0002792:	83 c4 10             	add    $0x10,%esp
c0002795:	83 ec 0c             	sub    $0xc,%esp
c0002798:	8d 83 27 e4 ff ff    	lea    -0x1bd9(%ebx),%eax
c000279e:	50                   	push   %eax
c000279f:	e8 de ee ff ff       	call   c0001682 <put_str>
c00027a4:	83 c4 10             	add    $0x10,%esp
c00027a7:	c7 c0 ac 52 00 c0    	mov    $0xc00052ac,%eax
c00027ad:	8b 00                	mov    (%eax),%eax
c00027af:	83 ec 0c             	sub    $0xc,%esp
c00027b2:	50                   	push   %eax
c00027b3:	e8 71 ee ff ff       	call   c0001629 <put_int>
c00027b8:	83 c4 10             	add    $0x10,%esp
c00027bb:	83 ec 0c             	sub    $0xc,%esp
c00027be:	8d 83 34 e4 ff ff    	lea    -0x1bcc(%ebx),%eax
c00027c4:	50                   	push   %eax
c00027c5:	e8 b8 ee ff ff       	call   c0001682 <put_str>
c00027ca:	83 c4 10             	add    $0x10,%esp
c00027cd:	c7 c0 ac 52 00 c0    	mov    $0xc00052ac,%eax
c00027d3:	8b 40 04             	mov    0x4(%eax),%eax
c00027d6:	83 ec 0c             	sub    $0xc,%esp
c00027d9:	50                   	push   %eax
c00027da:	e8 4a ee ff ff       	call   c0001629 <put_int>
c00027df:	83 c4 10             	add    $0x10,%esp
c00027e2:	83 ec 0c             	sub    $0xc,%esp
c00027e5:	8d 83 3b e4 ff ff    	lea    -0x1bc5(%ebx),%eax
c00027eb:	50                   	push   %eax
c00027ec:	e8 91 ee ff ff       	call   c0001682 <put_str>
c00027f1:	83 c4 10             	add    $0x10,%esp
c00027f4:	c7 c0 ac 52 00 c0    	mov    $0xc00052ac,%eax
c00027fa:	8b 40 08             	mov    0x8(%eax),%eax
c00027fd:	83 ec 0c             	sub    $0xc,%esp
c0002800:	50                   	push   %eax
c0002801:	e8 23 ee ff ff       	call   c0001629 <put_int>
c0002806:	83 c4 10             	add    $0x10,%esp
c0002809:	83 ec 0c             	sub    $0xc,%esp
c000280c:	8d 83 59 e4 ff ff    	lea    -0x1ba7(%ebx),%eax
c0002812:	50                   	push   %eax
c0002813:	e8 6a ee ff ff       	call   c0001682 <put_str>
c0002818:	83 c4 10             	add    $0x10,%esp
c000281b:	c7 c0 ac 52 00 c0    	mov    $0xc00052ac,%eax
c0002821:	8b 50 08             	mov    0x8(%eax),%edx
c0002824:	c7 c0 ac 52 00 c0    	mov    $0xc00052ac,%eax
c000282a:	8b 40 0c             	mov    0xc(%eax),%eax
c000282d:	01 d0                	add    %edx,%eax
c000282f:	83 ec 0c             	sub    $0xc,%esp
c0002832:	50                   	push   %eax
c0002833:	e8 f1 ed ff ff       	call   c0001629 <put_int>
c0002838:	83 c4 10             	add    $0x10,%esp
c000283b:	83 ec 0c             	sub    $0xc,%esp
c000283e:	8d 83 5e e4 ff ff    	lea    -0x1ba2(%ebx),%eax
c0002844:	50                   	push   %eax
c0002845:	e8 38 ee ff ff       	call   c0001682 <put_str>
c000284a:	83 c4 10             	add    $0x10,%esp
c000284d:	83 ec 0c             	sub    $0xc,%esp
c0002850:	8d 83 60 e4 ff ff    	lea    -0x1ba0(%ebx),%eax
c0002856:	50                   	push   %eax
c0002857:	e8 26 ee ff ff       	call   c0001682 <put_str>
c000285c:	83 c4 10             	add    $0x10,%esp
c000285f:	c7 c0 84 52 00 c0    	mov    $0xc0005284,%eax
c0002865:	8b 00                	mov    (%eax),%eax
c0002867:	83 ec 0c             	sub    $0xc,%esp
c000286a:	50                   	push   %eax
c000286b:	e8 b9 ed ff ff       	call   c0001629 <put_int>
c0002870:	83 c4 10             	add    $0x10,%esp
c0002873:	83 ec 0c             	sub    $0xc,%esp
c0002876:	8d 83 34 e4 ff ff    	lea    -0x1bcc(%ebx),%eax
c000287c:	50                   	push   %eax
c000287d:	e8 00 ee ff ff       	call   c0001682 <put_str>
c0002882:	83 c4 10             	add    $0x10,%esp
c0002885:	c7 c0 84 52 00 c0    	mov    $0xc0005284,%eax
c000288b:	8b 40 04             	mov    0x4(%eax),%eax
c000288e:	83 ec 0c             	sub    $0xc,%esp
c0002891:	50                   	push   %eax
c0002892:	e8 92 ed ff ff       	call   c0001629 <put_int>
c0002897:	83 c4 10             	add    $0x10,%esp
c000289a:	83 ec 0c             	sub    $0xc,%esp
c000289d:	8d 83 3b e4 ff ff    	lea    -0x1bc5(%ebx),%eax
c00028a3:	50                   	push   %eax
c00028a4:	e8 d9 ed ff ff       	call   c0001682 <put_str>
c00028a9:	83 c4 10             	add    $0x10,%esp
c00028ac:	c7 c0 84 52 00 c0    	mov    $0xc0005284,%eax
c00028b2:	8b 40 08             	mov    0x8(%eax),%eax
c00028b5:	83 ec 0c             	sub    $0xc,%esp
c00028b8:	50                   	push   %eax
c00028b9:	e8 6b ed ff ff       	call   c0001629 <put_int>
c00028be:	83 c4 10             	add    $0x10,%esp
c00028c1:	83 ec 0c             	sub    $0xc,%esp
c00028c4:	8d 83 59 e4 ff ff    	lea    -0x1ba7(%ebx),%eax
c00028ca:	50                   	push   %eax
c00028cb:	e8 b2 ed ff ff       	call   c0001682 <put_str>
c00028d0:	83 c4 10             	add    $0x10,%esp
c00028d3:	c7 c0 84 52 00 c0    	mov    $0xc0005284,%eax
c00028d9:	8b 50 08             	mov    0x8(%eax),%edx
c00028dc:	c7 c0 84 52 00 c0    	mov    $0xc0005284,%eax
c00028e2:	8b 40 0c             	mov    0xc(%eax),%eax
c00028e5:	01 d0                	add    %edx,%eax
c00028e7:	83 ec 0c             	sub    $0xc,%esp
c00028ea:	50                   	push   %eax
c00028eb:	e8 39 ed ff ff       	call   c0001629 <put_int>
c00028f0:	83 c4 10             	add    $0x10,%esp
c00028f3:	83 ec 0c             	sub    $0xc,%esp
c00028f6:	8d 83 5e e4 ff ff    	lea    -0x1ba2(%ebx),%eax
c00028fc:	50                   	push   %eax
c00028fd:	e8 80 ed ff ff       	call   c0001682 <put_str>
c0002902:	83 c4 10             	add    $0x10,%esp
c0002905:	83 ec 0c             	sub    $0xc,%esp
c0002908:	8d 83 6d e4 ff ff    	lea    -0x1b93(%ebx),%eax
c000290e:	50                   	push   %eax
c000290f:	e8 6e ed ff ff       	call   c0001682 <put_str>
c0002914:	83 c4 10             	add    $0x10,%esp
c0002917:	c7 c0 98 52 00 c0    	mov    $0xc0005298,%eax
c000291d:	8b 00                	mov    (%eax),%eax
c000291f:	83 ec 0c             	sub    $0xc,%esp
c0002922:	50                   	push   %eax
c0002923:	e8 01 ed ff ff       	call   c0001629 <put_int>
c0002928:	83 c4 10             	add    $0x10,%esp
c000292b:	83 ec 0c             	sub    $0xc,%esp
c000292e:	8d 83 34 e4 ff ff    	lea    -0x1bcc(%ebx),%eax
c0002934:	50                   	push   %eax
c0002935:	e8 48 ed ff ff       	call   c0001682 <put_str>
c000293a:	83 c4 10             	add    $0x10,%esp
c000293d:	c7 c0 98 52 00 c0    	mov    $0xc0005298,%eax
c0002943:	8b 40 04             	mov    0x4(%eax),%eax
c0002946:	83 ec 0c             	sub    $0xc,%esp
c0002949:	50                   	push   %eax
c000294a:	e8 da ec ff ff       	call   c0001629 <put_int>
c000294f:	83 c4 10             	add    $0x10,%esp
c0002952:	83 ec 0c             	sub    $0xc,%esp
c0002955:	8d 83 7c e4 ff ff    	lea    -0x1b84(%ebx),%eax
c000295b:	50                   	push   %eax
c000295c:	e8 21 ed ff ff       	call   c0001682 <put_str>
c0002961:	83 c4 10             	add    $0x10,%esp
c0002964:	c7 c0 98 52 00 c0    	mov    $0xc0005298,%eax
c000296a:	8b 40 08             	mov    0x8(%eax),%eax
c000296d:	83 ec 0c             	sub    $0xc,%esp
c0002970:	50                   	push   %eax
c0002971:	e8 b3 ec ff ff       	call   c0001629 <put_int>
c0002976:	83 c4 10             	add    $0x10,%esp
c0002979:	83 ec 0c             	sub    $0xc,%esp
c000297c:	8d 83 5e e4 ff ff    	lea    -0x1ba2(%ebx),%eax
c0002982:	50                   	push   %eax
c0002983:	e8 fa ec ff ff       	call   c0001682 <put_str>
c0002988:	83 c4 10             	add    $0x10,%esp
c000298b:	90                   	nop
c000298c:	8b 5d fc             	mov    -0x4(%ebp),%ebx
c000298f:	c9                   	leave  
c0002990:	c3                   	ret    

c0002991 <INIT_LIST_HEAD>:
c0002991:	55                   	push   %ebp
c0002992:	89 e5                	mov    %esp,%ebp
c0002994:	e8 37 f6 ff ff       	call   c0001fd0 <__x86.get_pc_thunk.ax>
c0002999:	05 67 26 00 00       	add    $0x2667,%eax
c000299e:	8b 45 08             	mov    0x8(%ebp),%eax
c00029a1:	8b 55 08             	mov    0x8(%ebp),%edx
c00029a4:	89 50 04             	mov    %edx,0x4(%eax)
c00029a7:	8b 45 08             	mov    0x8(%ebp),%eax
c00029aa:	8b 50 04             	mov    0x4(%eax),%edx
c00029ad:	8b 45 08             	mov    0x8(%ebp),%eax
c00029b0:	89 10                	mov    %edx,(%eax)
c00029b2:	90                   	nop
c00029b3:	5d                   	pop    %ebp
c00029b4:	c3                   	ret    

c00029b5 <__list_add>:
c00029b5:	55                   	push   %ebp
c00029b6:	89 e5                	mov    %esp,%ebp
c00029b8:	e8 13 f6 ff ff       	call   c0001fd0 <__x86.get_pc_thunk.ax>
c00029bd:	05 43 26 00 00       	add    $0x2643,%eax
c00029c2:	8b 45 10             	mov    0x10(%ebp),%eax
c00029c5:	8b 55 08             	mov    0x8(%ebp),%edx
c00029c8:	89 50 04             	mov    %edx,0x4(%eax)
c00029cb:	8b 45 08             	mov    0x8(%ebp),%eax
c00029ce:	8b 55 10             	mov    0x10(%ebp),%edx
c00029d1:	89 10                	mov    %edx,(%eax)
c00029d3:	8b 45 08             	mov    0x8(%ebp),%eax
c00029d6:	8b 55 0c             	mov    0xc(%ebp),%edx
c00029d9:	89 50 04             	mov    %edx,0x4(%eax)
c00029dc:	8b 45 0c             	mov    0xc(%ebp),%eax
c00029df:	8b 55 08             	mov    0x8(%ebp),%edx
c00029e2:	89 10                	mov    %edx,(%eax)
c00029e4:	90                   	nop
c00029e5:	5d                   	pop    %ebp
c00029e6:	c3                   	ret    

c00029e7 <__list_del>:
c00029e7:	55                   	push   %ebp
c00029e8:	89 e5                	mov    %esp,%ebp
c00029ea:	e8 e1 f5 ff ff       	call   c0001fd0 <__x86.get_pc_thunk.ax>
c00029ef:	05 11 26 00 00       	add    $0x2611,%eax
c00029f4:	8b 45 0c             	mov    0xc(%ebp),%eax
c00029f7:	8b 55 08             	mov    0x8(%ebp),%edx
c00029fa:	89 50 04             	mov    %edx,0x4(%eax)
c00029fd:	8b 45 08             	mov    0x8(%ebp),%eax
c0002a00:	8b 55 0c             	mov    0xc(%ebp),%edx
c0002a03:	89 10                	mov    %edx,(%eax)
c0002a05:	90                   	nop
c0002a06:	5d                   	pop    %ebp
c0002a07:	c3                   	ret    

c0002a08 <list_add_tail>:
c0002a08:	55                   	push   %ebp
c0002a09:	89 e5                	mov    %esp,%ebp
c0002a0b:	e8 c0 f5 ff ff       	call   c0001fd0 <__x86.get_pc_thunk.ax>
c0002a10:	05 f0 25 00 00       	add    $0x25f0,%eax
c0002a15:	8b 45 0c             	mov    0xc(%ebp),%eax
c0002a18:	8b 40 04             	mov    0x4(%eax),%eax
c0002a1b:	ff 75 0c             	pushl  0xc(%ebp)
c0002a1e:	50                   	push   %eax
c0002a1f:	ff 75 08             	pushl  0x8(%ebp)
c0002a22:	e8 8e ff ff ff       	call   c00029b5 <__list_add>
c0002a27:	83 c4 0c             	add    $0xc,%esp
c0002a2a:	90                   	nop
c0002a2b:	c9                   	leave  
c0002a2c:	c3                   	ret    

c0002a2d <list_empty>:
c0002a2d:	55                   	push   %ebp
c0002a2e:	89 e5                	mov    %esp,%ebp
c0002a30:	e8 9b f5 ff ff       	call   c0001fd0 <__x86.get_pc_thunk.ax>
c0002a35:	05 cb 25 00 00       	add    $0x25cb,%eax
c0002a3a:	8b 45 08             	mov    0x8(%ebp),%eax
c0002a3d:	8b 00                	mov    (%eax),%eax
c0002a3f:	39 45 08             	cmp    %eax,0x8(%ebp)
c0002a42:	0f 94 c0             	sete   %al
c0002a45:	0f b6 c0             	movzbl %al,%eax
c0002a48:	5d                   	pop    %ebp
c0002a49:	c3                   	ret    

c0002a4a <make_main_thread>:
c0002a4a:	55                   	push   %ebp
c0002a4b:	89 e5                	mov    %esp,%ebp
c0002a4d:	53                   	push   %ebx
c0002a4e:	83 ec 10             	sub    $0x10,%esp
c0002a51:	e8 b9 eb ff ff       	call   c000160f <__x86.get_pc_thunk.bx>
c0002a56:	81 c3 aa 25 00 00    	add    $0x25aa,%ebx
c0002a5c:	c7 c0 c0 52 00 c0    	mov    $0xc00052c0,%eax
c0002a62:	50                   	push   %eax
c0002a63:	e8 29 ff ff ff       	call   c0002991 <INIT_LIST_HEAD>
c0002a68:	83 c4 04             	add    $0x4,%esp
c0002a6b:	c7 c0 c8 52 00 c0    	mov    $0xc00052c8,%eax
c0002a71:	50                   	push   %eax
c0002a72:	e8 1a ff ff ff       	call   c0002991 <INIT_LIST_HEAD>
c0002a77:	83 c4 04             	add    $0x4,%esp
c0002a7a:	c7 45 f8 00 e0 09 c0 	movl   $0xc009e000,-0x8(%ebp)
c0002a81:	8b 45 f8             	mov    -0x8(%ebp),%eax
c0002a84:	c7 40 04 00 00 00 00 	movl   $0x0,0x4(%eax)
c0002a8b:	8b 45 f8             	mov    -0x8(%ebp),%eax
c0002a8e:	83 c0 10             	add    $0x10,%eax
c0002a91:	c7 c2 c8 52 00 c0    	mov    $0xc00052c8,%edx
c0002a97:	52                   	push   %edx
c0002a98:	c7 c2 c8 52 00 c0    	mov    $0xc00052c8,%edx
c0002a9e:	52                   	push   %edx
c0002a9f:	50                   	push   %eax
c0002aa0:	e8 10 ff ff ff       	call   c00029b5 <__list_add>
c0002aa5:	83 c4 0c             	add    $0xc,%esp
c0002aa8:	8b 45 f8             	mov    -0x8(%ebp),%eax
c0002aab:	c7 40 18 1f 00 00 00 	movl   $0x1f,0x18(%eax)
c0002ab2:	8b 45 f8             	mov    -0x8(%ebp),%eax
c0002ab5:	8b 50 18             	mov    0x18(%eax),%edx
c0002ab8:	8b 45 f8             	mov    -0x8(%ebp),%eax
c0002abb:	89 50 1c             	mov    %edx,0x1c(%eax)
c0002abe:	8b 45 f8             	mov    -0x8(%ebp),%eax
c0002ac1:	c7 40 20 00 00 00 00 	movl   $0x0,0x20(%eax)
c0002ac8:	8b 45 f8             	mov    -0x8(%ebp),%eax
c0002acb:	c7 40 24 b3 df 30 01 	movl   $0x130dfb3,0x24(%eax)
c0002ad2:	90                   	nop
c0002ad3:	8b 5d fc             	mov    -0x4(%ebp),%ebx
c0002ad6:	c9                   	leave  
c0002ad7:	c3                   	ret    

c0002ad8 <start_thread>:
c0002ad8:	55                   	push   %ebp
c0002ad9:	89 e5                	mov    %esp,%ebp
c0002adb:	53                   	push   %ebx
c0002adc:	83 ec 14             	sub    $0x14,%esp
c0002adf:	e8 2b eb ff ff       	call   c000160f <__x86.get_pc_thunk.bx>
c0002ae4:	81 c3 1c 25 00 00    	add    $0x251c,%ebx
c0002aea:	83 ec 08             	sub    $0x8,%esp
c0002aed:	6a 01                	push   $0x1
c0002aef:	6a 00                	push   $0x0
c0002af1:	e8 e7 f9 ff ff       	call   c00024dd <malloc_page>
c0002af6:	83 c4 10             	add    $0x10,%esp
c0002af9:	89 45 f0             	mov    %eax,-0x10(%ebp)
c0002afc:	83 7d f0 00          	cmpl   $0x0,-0x10(%ebp)
c0002b00:	75 0a                	jne    c0002b0c <start_thread+0x34>
c0002b02:	b8 00 00 00 00       	mov    $0x0,%eax
c0002b07:	e9 b6 00 00 00       	jmp    c0002bc2 <start_thread+0xea>
c0002b0c:	8b 45 f0             	mov    -0x10(%ebp),%eax
c0002b0f:	8d 90 00 10 00 00    	lea    0x1000(%eax),%edx
c0002b15:	8b 45 f0             	mov    -0x10(%ebp),%eax
c0002b18:	89 10                	mov    %edx,(%eax)
c0002b1a:	8b 45 f0             	mov    -0x10(%ebp),%eax
c0002b1d:	c7 40 04 01 00 00 00 	movl   $0x1,0x4(%eax)
c0002b24:	8b 45 f0             	mov    -0x10(%ebp),%eax
c0002b27:	83 c0 08             	add    $0x8,%eax
c0002b2a:	83 ec 08             	sub    $0x8,%esp
c0002b2d:	c7 c2 c0 52 00 c0    	mov    $0xc00052c0,%edx
c0002b33:	52                   	push   %edx
c0002b34:	50                   	push   %eax
c0002b35:	e8 ce fe ff ff       	call   c0002a08 <list_add_tail>
c0002b3a:	83 c4 10             	add    $0x10,%esp
c0002b3d:	8b 45 f0             	mov    -0x10(%ebp),%eax
c0002b40:	83 c0 10             	add    $0x10,%eax
c0002b43:	83 ec 08             	sub    $0x8,%esp
c0002b46:	c7 c2 c8 52 00 c0    	mov    $0xc00052c8,%edx
c0002b4c:	52                   	push   %edx
c0002b4d:	50                   	push   %eax
c0002b4e:	e8 b5 fe ff ff       	call   c0002a08 <list_add_tail>
c0002b53:	83 c4 10             	add    $0x10,%esp
c0002b56:	8b 45 f0             	mov    -0x10(%ebp),%eax
c0002b59:	8b 55 10             	mov    0x10(%ebp),%edx
c0002b5c:	89 50 18             	mov    %edx,0x18(%eax)
c0002b5f:	8b 45 f0             	mov    -0x10(%ebp),%eax
c0002b62:	8b 50 18             	mov    0x18(%eax),%edx
c0002b65:	8b 45 f0             	mov    -0x10(%ebp),%eax
c0002b68:	89 50 1c             	mov    %edx,0x1c(%eax)
c0002b6b:	8b 45 f0             	mov    -0x10(%ebp),%eax
c0002b6e:	c7 40 20 00 00 00 00 	movl   $0x0,0x20(%eax)
c0002b75:	8b 45 f0             	mov    -0x10(%ebp),%eax
c0002b78:	c7 40 24 b3 df 30 01 	movl   $0x130dfb3,0x24(%eax)
c0002b7f:	8b 45 f0             	mov    -0x10(%ebp),%eax
c0002b82:	8b 00                	mov    (%eax),%eax
c0002b84:	8d 50 b4             	lea    -0x4c(%eax),%edx
c0002b87:	8b 45 f0             	mov    -0x10(%ebp),%eax
c0002b8a:	89 10                	mov    %edx,(%eax)
c0002b8c:	8b 45 f0             	mov    -0x10(%ebp),%eax
c0002b8f:	8b 00                	mov    (%eax),%eax
c0002b91:	8d 50 e0             	lea    -0x20(%eax),%edx
c0002b94:	8b 45 f0             	mov    -0x10(%ebp),%eax
c0002b97:	89 10                	mov    %edx,(%eax)
c0002b99:	8b 45 f0             	mov    -0x10(%ebp),%eax
c0002b9c:	8b 00                	mov    (%eax),%eax
c0002b9e:	89 45 f4             	mov    %eax,-0xc(%ebp)
c0002ba1:	8b 45 f4             	mov    -0xc(%ebp),%eax
c0002ba4:	8d 93 54 dd ff ff    	lea    -0x22ac(%ebx),%edx
c0002baa:	89 50 10             	mov    %edx,0x10(%eax)
c0002bad:	8b 45 f4             	mov    -0xc(%ebp),%eax
c0002bb0:	8b 55 08             	mov    0x8(%ebp),%edx
c0002bb3:	89 50 18             	mov    %edx,0x18(%eax)
c0002bb6:	8b 45 f4             	mov    -0xc(%ebp),%eax
c0002bb9:	8b 55 0c             	mov    0xc(%ebp),%edx
c0002bbc:	89 50 1c             	mov    %edx,0x1c(%eax)
c0002bbf:	8b 45 f0             	mov    -0x10(%ebp),%eax
c0002bc2:	8b 5d fc             	mov    -0x4(%ebp),%ebx
c0002bc5:	c9                   	leave  
c0002bc6:	c3                   	ret    

c0002bc7 <time_intr_handler>:
c0002bc7:	55                   	push   %ebp
c0002bc8:	89 e5                	mov    %esp,%ebp
c0002bca:	53                   	push   %ebx
c0002bcb:	83 ec 14             	sub    $0x14,%esp
c0002bce:	e8 3c ea ff ff       	call   c000160f <__x86.get_pc_thunk.bx>
c0002bd3:	81 c3 2d 24 00 00    	add    $0x242d,%ebx
c0002bd9:	c7 c0 e0 51 00 c0    	mov    $0xc00051e0,%eax
c0002bdf:	8b 00                	mov    (%eax),%eax
c0002be1:	8d 50 01             	lea    0x1(%eax),%edx
c0002be4:	c7 c0 e0 51 00 c0    	mov    $0xc00051e0,%eax
c0002bea:	89 10                	mov    %edx,(%eax)
c0002bec:	e8 44 01 00 00       	call   c0002d35 <get_cur_running>
c0002bf1:	89 45 f0             	mov    %eax,-0x10(%ebp)
c0002bf4:	8b 45 f0             	mov    -0x10(%ebp),%eax
c0002bf7:	8b 40 24             	mov    0x24(%eax),%eax
c0002bfa:	3d b3 df 30 01       	cmp    $0x130dfb3,%eax
c0002bff:	74 1b                	je     c0002c1c <time_intr_handler+0x55>
c0002c01:	83 ec 04             	sub    $0x4,%esp
c0002c04:	8d 83 a0 e4 ff ff    	lea    -0x1b60(%ebx),%eax
c0002c0a:	50                   	push   %eax
c0002c0b:	6a 52                	push   $0x52
c0002c0d:	8d 83 c4 e4 ff ff    	lea    -0x1b3c(%ebx),%eax
c0002c13:	50                   	push   %eax
c0002c14:	e8 bf f3 ff ff       	call   c0001fd8 <panic_spin>
c0002c19:	83 c4 10             	add    $0x10,%esp
c0002c1c:	8b 45 f0             	mov    -0x10(%ebp),%eax
c0002c1f:	8b 40 20             	mov    0x20(%eax),%eax
c0002c22:	8d 50 01             	lea    0x1(%eax),%edx
c0002c25:	8b 45 f0             	mov    -0x10(%ebp),%eax
c0002c28:	89 50 20             	mov    %edx,0x20(%eax)
c0002c2b:	8b 45 f0             	mov    -0x10(%ebp),%eax
c0002c2e:	8b 50 20             	mov    0x20(%eax),%edx
c0002c31:	8b 45 f0             	mov    -0x10(%ebp),%eax
c0002c34:	8b 40 1c             	mov    0x1c(%eax),%eax
c0002c37:	39 c2                	cmp    %eax,%edx
c0002c39:	0f 85 b8 00 00 00    	jne    c0002cf7 <time_intr_handler+0x130>
c0002c3f:	e8 b8 00 00 00       	call   c0002cfc <schedule>
c0002c44:	89 45 f4             	mov    %eax,-0xc(%ebp)
c0002c47:	83 7d f4 00          	cmpl   $0x0,-0xc(%ebp)
c0002c4b:	0f 84 a5 00 00 00    	je     c0002cf6 <time_intr_handler+0x12f>
c0002c51:	8b 45 f0             	mov    -0x10(%ebp),%eax
c0002c54:	c7 40 04 01 00 00 00 	movl   $0x1,0x4(%eax)
c0002c5b:	8b 45 f0             	mov    -0x10(%ebp),%eax
c0002c5e:	83 c0 08             	add    $0x8,%eax
c0002c61:	83 ec 08             	sub    $0x8,%esp
c0002c64:	50                   	push   %eax
c0002c65:	c7 c0 c0 52 00 c0    	mov    $0xc00052c0,%eax
c0002c6b:	50                   	push   %eax
c0002c6c:	e8 24 01 00 00       	call   c0002d95 <list_find>
c0002c71:	83 c4 10             	add    $0x10,%esp
c0002c74:	85 c0                	test   %eax,%eax
c0002c76:	74 1b                	je     c0002c93 <time_intr_handler+0xcc>
c0002c78:	83 ec 04             	sub    $0x4,%esp
c0002c7b:	8d 83 d0 e4 ff ff    	lea    -0x1b30(%ebx),%eax
c0002c81:	50                   	push   %eax
c0002c82:	6a 5b                	push   $0x5b
c0002c84:	8d 83 c4 e4 ff ff    	lea    -0x1b3c(%ebx),%eax
c0002c8a:	50                   	push   %eax
c0002c8b:	e8 48 f3 ff ff       	call   c0001fd8 <panic_spin>
c0002c90:	83 c4 10             	add    $0x10,%esp
c0002c93:	8b 45 f0             	mov    -0x10(%ebp),%eax
c0002c96:	83 c0 08             	add    $0x8,%eax
c0002c99:	83 ec 08             	sub    $0x8,%esp
c0002c9c:	c7 c2 c0 52 00 c0    	mov    $0xc00052c0,%edx
c0002ca2:	52                   	push   %edx
c0002ca3:	50                   	push   %eax
c0002ca4:	e8 5f fd ff ff       	call   c0002a08 <list_add_tail>
c0002ca9:	83 c4 10             	add    $0x10,%esp
c0002cac:	8b 45 f0             	mov    -0x10(%ebp),%eax
c0002caf:	c7 40 20 00 00 00 00 	movl   $0x0,0x20(%eax)
c0002cb6:	8b 45 f4             	mov    -0xc(%ebp),%eax
c0002cb9:	c7 40 04 00 00 00 00 	movl   $0x0,0x4(%eax)
c0002cc0:	8b 45 f4             	mov    -0xc(%ebp),%eax
c0002cc3:	8b 50 08             	mov    0x8(%eax),%edx
c0002cc6:	8b 45 f4             	mov    -0xc(%ebp),%eax
c0002cc9:	8b 40 0c             	mov    0xc(%eax),%eax
c0002ccc:	83 ec 08             	sub    $0x8,%esp
c0002ccf:	52                   	push   %edx
c0002cd0:	50                   	push   %eax
c0002cd1:	e8 11 fd ff ff       	call   c00029e7 <__list_del>
c0002cd6:	83 c4 10             	add    $0x10,%esp
c0002cd9:	8b 45 f4             	mov    -0xc(%ebp),%eax
c0002cdc:	c7 40 20 00 00 00 00 	movl   $0x0,0x20(%eax)
c0002ce3:	83 ec 08             	sub    $0x8,%esp
c0002ce6:	ff 75 f4             	pushl  -0xc(%ebp)
c0002ce9:	ff 75 f0             	pushl  -0x10(%ebp)
c0002cec:	e8 8f 00 00 00       	call   c0002d80 <switch_to>
c0002cf1:	83 c4 10             	add    $0x10,%esp
c0002cf4:	eb 01                	jmp    c0002cf7 <time_intr_handler+0x130>
c0002cf6:	90                   	nop
c0002cf7:	8b 5d fc             	mov    -0x4(%ebp),%ebx
c0002cfa:	c9                   	leave  
c0002cfb:	c3                   	ret    

c0002cfc <schedule>:
c0002cfc:	55                   	push   %ebp
c0002cfd:	89 e5                	mov    %esp,%ebp
c0002cff:	53                   	push   %ebx
c0002d00:	e8 0a e9 ff ff       	call   c000160f <__x86.get_pc_thunk.bx>
c0002d05:	81 c3 fb 22 00 00    	add    $0x22fb,%ebx
c0002d0b:	c7 c0 c0 52 00 c0    	mov    $0xc00052c0,%eax
c0002d11:	50                   	push   %eax
c0002d12:	e8 16 fd ff ff       	call   c0002a2d <list_empty>
c0002d17:	83 c4 04             	add    $0x4,%esp
c0002d1a:	85 c0                	test   %eax,%eax
c0002d1c:	74 07                	je     c0002d25 <schedule+0x29>
c0002d1e:	b8 00 00 00 00       	mov    $0x0,%eax
c0002d23:	eb 0b                	jmp    c0002d30 <schedule+0x34>
c0002d25:	c7 c0 c0 52 00 c0    	mov    $0xc00052c0,%eax
c0002d2b:	8b 00                	mov    (%eax),%eax
c0002d2d:	83 e8 08             	sub    $0x8,%eax
c0002d30:	8b 5d fc             	mov    -0x4(%ebp),%ebx
c0002d33:	c9                   	leave  
c0002d34:	c3                   	ret    

c0002d35 <get_cur_running>:
c0002d35:	55                   	push   %ebp
c0002d36:	89 e5                	mov    %esp,%ebp
c0002d38:	83 ec 10             	sub    $0x10,%esp
c0002d3b:	e8 90 f2 ff ff       	call   c0001fd0 <__x86.get_pc_thunk.ax>
c0002d40:	05 c0 22 00 00       	add    $0x22c0,%eax
c0002d45:	89 e0                	mov    %esp,%eax
c0002d47:	89 45 fc             	mov    %eax,-0x4(%ebp)
c0002d4a:	8b 45 fc             	mov    -0x4(%ebp),%eax
c0002d4d:	25 00 f0 ff ff       	and    $0xfffff000,%eax
c0002d52:	c9                   	leave  
c0002d53:	c3                   	ret    

c0002d54 <f_wrapper>:
c0002d54:	55                   	push   %ebp
c0002d55:	89 e5                	mov    %esp,%ebp
c0002d57:	53                   	push   %ebx
c0002d58:	83 ec 04             	sub    $0x4,%esp
c0002d5b:	e8 70 f2 ff ff       	call   c0001fd0 <__x86.get_pc_thunk.ax>
c0002d60:	05 a0 22 00 00       	add    $0x22a0,%eax
c0002d65:	89 c3                	mov    %eax,%ebx
c0002d67:	e8 28 f2 ff ff       	call   c0001f94 <enable_intr>
c0002d6c:	83 ec 0c             	sub    $0xc,%esp
c0002d6f:	ff 75 0c             	pushl  0xc(%ebp)
c0002d72:	8b 45 08             	mov    0x8(%ebp),%eax
c0002d75:	ff d0                	call   *%eax
c0002d77:	83 c4 10             	add    $0x10,%esp
c0002d7a:	90                   	nop
c0002d7b:	8b 5d fc             	mov    -0x4(%ebp),%ebx
c0002d7e:	c9                   	leave  
c0002d7f:	c3                   	ret    

c0002d80 <switch_to>:
c0002d80:	56                   	push   %esi
c0002d81:	57                   	push   %edi
c0002d82:	53                   	push   %ebx
c0002d83:	55                   	push   %ebp
c0002d84:	8b 44 24 14          	mov    0x14(%esp),%eax
c0002d88:	89 20                	mov    %esp,(%eax)
c0002d8a:	8b 44 24 18          	mov    0x18(%esp),%eax
c0002d8e:	8b 20                	mov    (%eax),%esp
c0002d90:	5d                   	pop    %ebp
c0002d91:	5b                   	pop    %ebx
c0002d92:	5f                   	pop    %edi
c0002d93:	5e                   	pop    %esi
c0002d94:	c3                   	ret    

c0002d95 <list_find>:
c0002d95:	55                   	push   %ebp
c0002d96:	89 e5                	mov    %esp,%ebp
c0002d98:	83 ec 10             	sub    $0x10,%esp
c0002d9b:	e8 30 f2 ff ff       	call   c0001fd0 <__x86.get_pc_thunk.ax>
c0002da0:	05 60 22 00 00       	add    $0x2260,%eax
c0002da5:	8b 45 08             	mov    0x8(%ebp),%eax
c0002da8:	8b 00                	mov    (%eax),%eax
c0002daa:	89 45 fc             	mov    %eax,-0x4(%ebp)
c0002dad:	eb 15                	jmp    c0002dc4 <list_find+0x2f>
c0002daf:	8b 45 fc             	mov    -0x4(%ebp),%eax
c0002db2:	3b 45 0c             	cmp    0xc(%ebp),%eax
c0002db5:	75 05                	jne    c0002dbc <list_find+0x27>
c0002db7:	8b 45 0c             	mov    0xc(%ebp),%eax
c0002dba:	eb 15                	jmp    c0002dd1 <list_find+0x3c>
c0002dbc:	8b 45 fc             	mov    -0x4(%ebp),%eax
c0002dbf:	8b 00                	mov    (%eax),%eax
c0002dc1:	89 45 fc             	mov    %eax,-0x4(%ebp)
c0002dc4:	8b 45 fc             	mov    -0x4(%ebp),%eax
c0002dc7:	3b 45 08             	cmp    0x8(%ebp),%eax
c0002dca:	75 e3                	jne    c0002daf <list_find+0x1a>
c0002dcc:	b8 00 00 00 00       	mov    $0x0,%eax
c0002dd1:	c9                   	leave  
c0002dd2:	c3                   	ret    

c0002dd3 <INIT_LIST_HEAD>:
c0002dd3:	55                   	push   %ebp
c0002dd4:	89 e5                	mov    %esp,%ebp
c0002dd6:	e8 f5 f1 ff ff       	call   c0001fd0 <__x86.get_pc_thunk.ax>
c0002ddb:	05 25 22 00 00       	add    $0x2225,%eax
c0002de0:	8b 45 08             	mov    0x8(%ebp),%eax
c0002de3:	8b 55 08             	mov    0x8(%ebp),%edx
c0002de6:	89 50 04             	mov    %edx,0x4(%eax)
c0002de9:	8b 45 08             	mov    0x8(%ebp),%eax
c0002dec:	8b 50 04             	mov    0x4(%eax),%edx
c0002def:	8b 45 08             	mov    0x8(%ebp),%eax
c0002df2:	89 10                	mov    %edx,(%eax)
c0002df4:	90                   	nop
c0002df5:	5d                   	pop    %ebp
c0002df6:	c3                   	ret    

c0002df7 <__list_add>:
c0002df7:	55                   	push   %ebp
c0002df8:	89 e5                	mov    %esp,%ebp
c0002dfa:	e8 d1 f1 ff ff       	call   c0001fd0 <__x86.get_pc_thunk.ax>
c0002dff:	05 01 22 00 00       	add    $0x2201,%eax
c0002e04:	8b 45 10             	mov    0x10(%ebp),%eax
c0002e07:	8b 55 08             	mov    0x8(%ebp),%edx
c0002e0a:	89 50 04             	mov    %edx,0x4(%eax)
c0002e0d:	8b 45 08             	mov    0x8(%ebp),%eax
c0002e10:	8b 55 10             	mov    0x10(%ebp),%edx
c0002e13:	89 10                	mov    %edx,(%eax)
c0002e15:	8b 45 08             	mov    0x8(%ebp),%eax
c0002e18:	8b 55 0c             	mov    0xc(%ebp),%edx
c0002e1b:	89 50 04             	mov    %edx,0x4(%eax)
c0002e1e:	8b 45 0c             	mov    0xc(%ebp),%eax
c0002e21:	8b 55 08             	mov    0x8(%ebp),%edx
c0002e24:	89 10                	mov    %edx,(%eax)
c0002e26:	90                   	nop
c0002e27:	5d                   	pop    %ebp
c0002e28:	c3                   	ret    

c0002e29 <__list_del>:
c0002e29:	55                   	push   %ebp
c0002e2a:	89 e5                	mov    %esp,%ebp
c0002e2c:	e8 9f f1 ff ff       	call   c0001fd0 <__x86.get_pc_thunk.ax>
c0002e31:	05 cf 21 00 00       	add    $0x21cf,%eax
c0002e36:	8b 45 0c             	mov    0xc(%ebp),%eax
c0002e39:	8b 55 08             	mov    0x8(%ebp),%edx
c0002e3c:	89 50 04             	mov    %edx,0x4(%eax)
c0002e3f:	8b 45 08             	mov    0x8(%ebp),%eax
c0002e42:	8b 55 0c             	mov    0xc(%ebp),%edx
c0002e45:	89 10                	mov    %edx,(%eax)
c0002e47:	90                   	nop
c0002e48:	5d                   	pop    %ebp
c0002e49:	c3                   	ret    

c0002e4a <list_add_tail>:
c0002e4a:	55                   	push   %ebp
c0002e4b:	89 e5                	mov    %esp,%ebp
c0002e4d:	e8 7e f1 ff ff       	call   c0001fd0 <__x86.get_pc_thunk.ax>
c0002e52:	05 ae 21 00 00       	add    $0x21ae,%eax
c0002e57:	8b 45 0c             	mov    0xc(%ebp),%eax
c0002e5a:	8b 40 04             	mov    0x4(%eax),%eax
c0002e5d:	ff 75 0c             	pushl  0xc(%ebp)
c0002e60:	50                   	push   %eax
c0002e61:	ff 75 08             	pushl  0x8(%ebp)
c0002e64:	e8 8e ff ff ff       	call   c0002df7 <__list_add>
c0002e69:	83 c4 0c             	add    $0xc,%esp
c0002e6c:	90                   	nop
c0002e6d:	c9                   	leave  
c0002e6e:	c3                   	ret    

c0002e6f <list_empty>:
c0002e6f:	55                   	push   %ebp
c0002e70:	89 e5                	mov    %esp,%ebp
c0002e72:	e8 59 f1 ff ff       	call   c0001fd0 <__x86.get_pc_thunk.ax>
c0002e77:	05 89 21 00 00       	add    $0x2189,%eax
c0002e7c:	8b 45 08             	mov    0x8(%ebp),%eax
c0002e7f:	8b 00                	mov    (%eax),%eax
c0002e81:	39 45 08             	cmp    %eax,0x8(%ebp)
c0002e84:	0f 94 c0             	sete   %al
c0002e87:	0f b6 c0             	movzbl %al,%eax
c0002e8a:	5d                   	pop    %ebp
c0002e8b:	c3                   	ret    

c0002e8c <P>:
c0002e8c:	55                   	push   %ebp
c0002e8d:	89 e5                	mov    %esp,%ebp
c0002e8f:	53                   	push   %ebx
c0002e90:	83 ec 14             	sub    $0x14,%esp
c0002e93:	e8 77 e7 ff ff       	call   c000160f <__x86.get_pc_thunk.bx>
c0002e98:	81 c3 68 21 00 00    	add    $0x2168,%ebx
c0002e9e:	e8 0f f1 ff ff       	call   c0001fb2 <disable_intr>
c0002ea3:	89 45 f0             	mov    %eax,-0x10(%ebp)
c0002ea6:	e8 8a fe ff ff       	call   c0002d35 <get_cur_running>
c0002eab:	89 45 f4             	mov    %eax,-0xc(%ebp)
c0002eae:	eb 26                	jmp    c0002ed6 <P+0x4a>
c0002eb0:	8b 45 08             	mov    0x8(%ebp),%eax
c0002eb3:	8d 50 04             	lea    0x4(%eax),%edx
c0002eb6:	8b 45 f4             	mov    -0xc(%ebp),%eax
c0002eb9:	83 c0 08             	add    $0x8,%eax
c0002ebc:	83 ec 08             	sub    $0x8,%esp
c0002ebf:	52                   	push   %edx
c0002ec0:	50                   	push   %eax
c0002ec1:	e8 84 ff ff ff       	call   c0002e4a <list_add_tail>
c0002ec6:	83 c4 10             	add    $0x10,%esp
c0002ec9:	83 ec 0c             	sub    $0xc,%esp
c0002ecc:	6a 04                	push   $0x4
c0002ece:	e8 06 01 00 00       	call   c0002fd9 <block>
c0002ed3:	83 c4 10             	add    $0x10,%esp
c0002ed6:	8b 45 08             	mov    0x8(%ebp),%eax
c0002ed9:	8b 00                	mov    (%eax),%eax
c0002edb:	85 c0                	test   %eax,%eax
c0002edd:	74 d1                	je     c0002eb0 <P+0x24>
c0002edf:	8b 45 08             	mov    0x8(%ebp),%eax
c0002ee2:	8b 00                	mov    (%eax),%eax
c0002ee4:	85 c0                	test   %eax,%eax
c0002ee6:	7f 1b                	jg     c0002f03 <P+0x77>
c0002ee8:	83 ec 04             	sub    $0x4,%esp
c0002eeb:	8d 83 f8 e4 ff ff    	lea    -0x1b08(%ebx),%eax
c0002ef1:	50                   	push   %eax
c0002ef2:	6a 10                	push   $0x10
c0002ef4:	8d 83 06 e5 ff ff    	lea    -0x1afa(%ebx),%eax
c0002efa:	50                   	push   %eax
c0002efb:	e8 d8 f0 ff ff       	call   c0001fd8 <panic_spin>
c0002f00:	83 c4 10             	add    $0x10,%esp
c0002f03:	8b 45 08             	mov    0x8(%ebp),%eax
c0002f06:	8b 00                	mov    (%eax),%eax
c0002f08:	8d 50 ff             	lea    -0x1(%eax),%edx
c0002f0b:	8b 45 08             	mov    0x8(%ebp),%eax
c0002f0e:	89 10                	mov    %edx,(%eax)
c0002f10:	83 ec 0c             	sub    $0xc,%esp
c0002f13:	ff 75 f0             	pushl  -0x10(%ebp)
c0002f16:	e8 55 f0 ff ff       	call   c0001f70 <set_intr_status>
c0002f1b:	83 c4 10             	add    $0x10,%esp
c0002f1e:	90                   	nop
c0002f1f:	8b 5d fc             	mov    -0x4(%ebp),%ebx
c0002f22:	c9                   	leave  
c0002f23:	c3                   	ret    

c0002f24 <V>:
c0002f24:	55                   	push   %ebp
c0002f25:	89 e5                	mov    %esp,%ebp
c0002f27:	53                   	push   %ebx
c0002f28:	83 ec 14             	sub    $0x14,%esp
c0002f2b:	e8 df e6 ff ff       	call   c000160f <__x86.get_pc_thunk.bx>
c0002f30:	81 c3 d0 20 00 00    	add    $0x20d0,%ebx
c0002f36:	e8 77 f0 ff ff       	call   c0001fb2 <disable_intr>
c0002f3b:	89 45 f0             	mov    %eax,-0x10(%ebp)
c0002f3e:	8b 45 08             	mov    0x8(%ebp),%eax
c0002f41:	8b 00                	mov    (%eax),%eax
c0002f43:	8d 50 01             	lea    0x1(%eax),%edx
c0002f46:	8b 45 08             	mov    0x8(%ebp),%eax
c0002f49:	89 10                	mov    %edx,(%eax)
c0002f4b:	8b 45 08             	mov    0x8(%ebp),%eax
c0002f4e:	83 c0 04             	add    $0x4,%eax
c0002f51:	83 ec 0c             	sub    $0xc,%esp
c0002f54:	50                   	push   %eax
c0002f55:	e8 15 ff ff ff       	call   c0002e6f <list_empty>
c0002f5a:	83 c4 10             	add    $0x10,%esp
c0002f5d:	85 c0                	test   %eax,%eax
c0002f5f:	75 64                	jne    c0002fc5 <V+0xa1>
c0002f61:	8b 45 08             	mov    0x8(%ebp),%eax
c0002f64:	83 c0 04             	add    $0x4,%eax
c0002f67:	83 ec 0c             	sub    $0xc,%esp
c0002f6a:	50                   	push   %eax
c0002f6b:	e8 ff fe ff ff       	call   c0002e6f <list_empty>
c0002f70:	83 c4 10             	add    $0x10,%esp
c0002f73:	85 c0                	test   %eax,%eax
c0002f75:	74 1b                	je     c0002f92 <V+0x6e>
c0002f77:	83 ec 04             	sub    $0x4,%esp
c0002f7a:	8d 83 10 e5 ff ff    	lea    -0x1af0(%ebx),%eax
c0002f80:	50                   	push   %eax
c0002f81:	6a 1a                	push   $0x1a
c0002f83:	8d 83 06 e5 ff ff    	lea    -0x1afa(%ebx),%eax
c0002f89:	50                   	push   %eax
c0002f8a:	e8 49 f0 ff ff       	call   c0001fd8 <panic_spin>
c0002f8f:	83 c4 10             	add    $0x10,%esp
c0002f92:	8b 45 08             	mov    0x8(%ebp),%eax
c0002f95:	8b 40 04             	mov    0x4(%eax),%eax
c0002f98:	83 e8 08             	sub    $0x8,%eax
c0002f9b:	89 45 f4             	mov    %eax,-0xc(%ebp)
c0002f9e:	8b 45 f4             	mov    -0xc(%ebp),%eax
c0002fa1:	8b 50 08             	mov    0x8(%eax),%edx
c0002fa4:	8b 45 f4             	mov    -0xc(%ebp),%eax
c0002fa7:	8b 40 0c             	mov    0xc(%eax),%eax
c0002faa:	83 ec 08             	sub    $0x8,%esp
c0002fad:	52                   	push   %edx
c0002fae:	50                   	push   %eax
c0002faf:	e8 75 fe ff ff       	call   c0002e29 <__list_del>
c0002fb4:	83 c4 10             	add    $0x10,%esp
c0002fb7:	83 ec 0c             	sub    $0xc,%esp
c0002fba:	ff 75 f4             	pushl  -0xc(%ebp)
c0002fbd:	e8 cb 00 00 00       	call   c000308d <wakeup>
c0002fc2:	83 c4 10             	add    $0x10,%esp
c0002fc5:	83 ec 0c             	sub    $0xc,%esp
c0002fc8:	ff 75 f0             	pushl  -0x10(%ebp)
c0002fcb:	e8 a0 ef ff ff       	call   c0001f70 <set_intr_status>
c0002fd0:	83 c4 10             	add    $0x10,%esp
c0002fd3:	90                   	nop
c0002fd4:	8b 5d fc             	mov    -0x4(%ebp),%ebx
c0002fd7:	c9                   	leave  
c0002fd8:	c3                   	ret    

c0002fd9 <block>:
c0002fd9:	55                   	push   %ebp
c0002fda:	89 e5                	mov    %esp,%ebp
c0002fdc:	53                   	push   %ebx
c0002fdd:	83 ec 14             	sub    $0x14,%esp
c0002fe0:	e8 2a e6 ff ff       	call   c000160f <__x86.get_pc_thunk.bx>
c0002fe5:	81 c3 1b 20 00 00    	add    $0x201b,%ebx
c0002feb:	83 7d 08 04          	cmpl   $0x4,0x8(%ebp)
c0002fef:	74 27                	je     c0003018 <block+0x3f>
c0002ff1:	83 7d 08 03          	cmpl   $0x3,0x8(%ebp)
c0002ff5:	74 21                	je     c0003018 <block+0x3f>
c0002ff7:	83 7d 08 02          	cmpl   $0x2,0x8(%ebp)
c0002ffb:	74 1b                	je     c0003018 <block+0x3f>
c0002ffd:	83 ec 04             	sub    $0x4,%esp
c0003000:	8d 83 38 e5 ff ff    	lea    -0x1ac8(%ebx),%eax
c0003006:	50                   	push   %eax
c0003007:	6a 24                	push   $0x24
c0003009:	8d 83 06 e5 ff ff    	lea    -0x1afa(%ebx),%eax
c000300f:	50                   	push   %eax
c0003010:	e8 c3 ef ff ff       	call   c0001fd8 <panic_spin>
c0003015:	83 c4 10             	add    $0x10,%esp
c0003018:	e8 95 ef ff ff       	call   c0001fb2 <disable_intr>
c000301d:	89 45 ec             	mov    %eax,-0x14(%ebp)
c0003020:	e8 10 fd ff ff       	call   c0002d35 <get_cur_running>
c0003025:	89 45 f0             	mov    %eax,-0x10(%ebp)
c0003028:	8b 45 f0             	mov    -0x10(%ebp),%eax
c000302b:	8b 55 08             	mov    0x8(%ebp),%edx
c000302e:	89 50 04             	mov    %edx,0x4(%eax)
c0003031:	e8 c6 fc ff ff       	call   c0002cfc <schedule>
c0003036:	89 45 f4             	mov    %eax,-0xc(%ebp)
c0003039:	8b 45 f4             	mov    -0xc(%ebp),%eax
c000303c:	c7 40 04 00 00 00 00 	movl   $0x0,0x4(%eax)
c0003043:	8b 45 f4             	mov    -0xc(%ebp),%eax
c0003046:	8b 50 08             	mov    0x8(%eax),%edx
c0003049:	8b 45 f4             	mov    -0xc(%ebp),%eax
c000304c:	8b 40 0c             	mov    0xc(%eax),%eax
c000304f:	83 ec 08             	sub    $0x8,%esp
c0003052:	52                   	push   %edx
c0003053:	50                   	push   %eax
c0003054:	e8 d0 fd ff ff       	call   c0002e29 <__list_del>
c0003059:	83 c4 10             	add    $0x10,%esp
c000305c:	8b 45 f4             	mov    -0xc(%ebp),%eax
c000305f:	c7 40 20 00 00 00 00 	movl   $0x0,0x20(%eax)
c0003066:	60                   	pusha  
c0003067:	83 ec 08             	sub    $0x8,%esp
c000306a:	ff 75 f4             	pushl  -0xc(%ebp)
c000306d:	ff 75 f0             	pushl  -0x10(%ebp)
c0003070:	e8 0b fd ff ff       	call   c0002d80 <switch_to>
c0003075:	83 c4 10             	add    $0x10,%esp
c0003078:	61                   	popa   
c0003079:	83 ec 0c             	sub    $0xc,%esp
c000307c:	ff 75 ec             	pushl  -0x14(%ebp)
c000307f:	e8 ec ee ff ff       	call   c0001f70 <set_intr_status>
c0003084:	83 c4 10             	add    $0x10,%esp
c0003087:	90                   	nop
c0003088:	8b 5d fc             	mov    -0x4(%ebp),%ebx
c000308b:	c9                   	leave  
c000308c:	c3                   	ret    

c000308d <wakeup>:
c000308d:	55                   	push   %ebp
c000308e:	89 e5                	mov    %esp,%ebp
c0003090:	53                   	push   %ebx
c0003091:	83 ec 14             	sub    $0x14,%esp
c0003094:	e8 76 e5 ff ff       	call   c000160f <__x86.get_pc_thunk.bx>
c0003099:	81 c3 67 1f 00 00    	add    $0x1f67,%ebx
c000309f:	8b 45 08             	mov    0x8(%ebp),%eax
c00030a2:	8b 40 04             	mov    0x4(%eax),%eax
c00030a5:	83 f8 04             	cmp    $0x4,%eax
c00030a8:	74 31                	je     c00030db <wakeup+0x4e>
c00030aa:	8b 45 08             	mov    0x8(%ebp),%eax
c00030ad:	8b 40 04             	mov    0x4(%eax),%eax
c00030b0:	83 f8 03             	cmp    $0x3,%eax
c00030b3:	74 26                	je     c00030db <wakeup+0x4e>
c00030b5:	8b 45 08             	mov    0x8(%ebp),%eax
c00030b8:	8b 40 04             	mov    0x4(%eax),%eax
c00030bb:	83 f8 02             	cmp    $0x2,%eax
c00030be:	74 1b                	je     c00030db <wakeup+0x4e>
c00030c0:	83 ec 04             	sub    $0x4,%esp
c00030c3:	8d 83 6c e5 ff ff    	lea    -0x1a94(%ebx),%eax
c00030c9:	50                   	push   %eax
c00030ca:	6a 38                	push   $0x38
c00030cc:	8d 83 06 e5 ff ff    	lea    -0x1afa(%ebx),%eax
c00030d2:	50                   	push   %eax
c00030d3:	e8 00 ef ff ff       	call   c0001fd8 <panic_spin>
c00030d8:	83 c4 10             	add    $0x10,%esp
c00030db:	e8 d2 ee ff ff       	call   c0001fb2 <disable_intr>
c00030e0:	89 45 f4             	mov    %eax,-0xc(%ebp)
c00030e3:	8b 45 08             	mov    0x8(%ebp),%eax
c00030e6:	c7 40 04 01 00 00 00 	movl   $0x1,0x4(%eax)
c00030ed:	8b 45 08             	mov    0x8(%ebp),%eax
c00030f0:	83 c0 08             	add    $0x8,%eax
c00030f3:	83 ec 08             	sub    $0x8,%esp
c00030f6:	50                   	push   %eax
c00030f7:	c7 c0 c0 52 00 c0    	mov    $0xc00052c0,%eax
c00030fd:	50                   	push   %eax
c00030fe:	e8 92 fc ff ff       	call   c0002d95 <list_find>
c0003103:	83 c4 10             	add    $0x10,%esp
c0003106:	85 c0                	test   %eax,%eax
c0003108:	74 1b                	je     c0003125 <wakeup+0x98>
c000310a:	83 ec 04             	sub    $0x4,%esp
c000310d:	8d 83 a8 e5 ff ff    	lea    -0x1a58(%ebx),%eax
c0003113:	50                   	push   %eax
c0003114:	6a 3b                	push   $0x3b
c0003116:	8d 83 06 e5 ff ff    	lea    -0x1afa(%ebx),%eax
c000311c:	50                   	push   %eax
c000311d:	e8 b6 ee ff ff       	call   c0001fd8 <panic_spin>
c0003122:	83 c4 10             	add    $0x10,%esp
c0003125:	c7 c0 c0 52 00 c0    	mov    $0xc00052c0,%eax
c000312b:	8b 00                	mov    (%eax),%eax
c000312d:	8b 55 08             	mov    0x8(%ebp),%edx
c0003130:	83 c2 08             	add    $0x8,%edx
c0003133:	83 ec 04             	sub    $0x4,%esp
c0003136:	50                   	push   %eax
c0003137:	c7 c0 c0 52 00 c0    	mov    $0xc00052c0,%eax
c000313d:	50                   	push   %eax
c000313e:	52                   	push   %edx
c000313f:	e8 b3 fc ff ff       	call   c0002df7 <__list_add>
c0003144:	83 c4 10             	add    $0x10,%esp
c0003147:	83 ec 0c             	sub    $0xc,%esp
c000314a:	ff 75 f4             	pushl  -0xc(%ebp)
c000314d:	e8 1e ee ff ff       	call   c0001f70 <set_intr_status>
c0003152:	83 c4 10             	add    $0x10,%esp
c0003155:	90                   	nop
c0003156:	8b 5d fc             	mov    -0x4(%ebp),%ebx
c0003159:	c9                   	leave  
c000315a:	c3                   	ret    

c000315b <lock>:
c000315b:	55                   	push   %ebp
c000315c:	89 e5                	mov    %esp,%ebp
c000315e:	53                   	push   %ebx
c000315f:	83 ec 14             	sub    $0x14,%esp
c0003162:	e8 a8 e4 ff ff       	call   c000160f <__x86.get_pc_thunk.bx>
c0003167:	81 c3 99 1e 00 00    	add    $0x1e99,%ebx
c000316d:	e8 40 ee ff ff       	call   c0001fb2 <disable_intr>
c0003172:	89 45 f0             	mov    %eax,-0x10(%ebp)
c0003175:	8b 45 08             	mov    0x8(%ebp),%eax
c0003178:	8b 40 0c             	mov    0xc(%eax),%eax
c000317b:	85 c0                	test   %eax,%eax
c000317d:	74 0a                	je     c0003189 <lock+0x2e>
c000317f:	8b 45 08             	mov    0x8(%ebp),%eax
c0003182:	8b 40 10             	mov    0x10(%eax),%eax
c0003185:	85 c0                	test   %eax,%eax
c0003187:	7f 2f                	jg     c00031b8 <lock+0x5d>
c0003189:	8b 45 08             	mov    0x8(%ebp),%eax
c000318c:	8b 40 0c             	mov    0xc(%eax),%eax
c000318f:	85 c0                	test   %eax,%eax
c0003191:	75 0a                	jne    c000319d <lock+0x42>
c0003193:	8b 45 08             	mov    0x8(%ebp),%eax
c0003196:	8b 40 10             	mov    0x10(%eax),%eax
c0003199:	85 c0                	test   %eax,%eax
c000319b:	74 1b                	je     c00031b8 <lock+0x5d>
c000319d:	83 ec 04             	sub    $0x4,%esp
c00031a0:	8d 83 d4 e5 ff ff    	lea    -0x1a2c(%ebx),%eax
c00031a6:	50                   	push   %eax
c00031a7:	6a 4b                	push   $0x4b
c00031a9:	8d 83 06 e5 ff ff    	lea    -0x1afa(%ebx),%eax
c00031af:	50                   	push   %eax
c00031b0:	e8 23 ee ff ff       	call   c0001fd8 <panic_spin>
c00031b5:	83 c4 10             	add    $0x10,%esp
c00031b8:	e8 78 fb ff ff       	call   c0002d35 <get_cur_running>
c00031bd:	89 45 f4             	mov    %eax,-0xc(%ebp)
c00031c0:	8b 45 08             	mov    0x8(%ebp),%eax
c00031c3:	8b 40 0c             	mov    0xc(%eax),%eax
c00031c6:	39 45 f4             	cmp    %eax,-0xc(%ebp)
c00031c9:	75 11                	jne    c00031dc <lock+0x81>
c00031cb:	8b 45 08             	mov    0x8(%ebp),%eax
c00031ce:	8b 40 10             	mov    0x10(%eax),%eax
c00031d1:	8d 50 01             	lea    0x1(%eax),%edx
c00031d4:	8b 45 08             	mov    0x8(%ebp),%eax
c00031d7:	89 50 10             	mov    %edx,0x10(%eax)
c00031da:	eb 22                	jmp    c00031fe <lock+0xa3>
c00031dc:	8b 45 08             	mov    0x8(%ebp),%eax
c00031df:	83 ec 0c             	sub    $0xc,%esp
c00031e2:	50                   	push   %eax
c00031e3:	e8 a4 fc ff ff       	call   c0002e8c <P>
c00031e8:	83 c4 10             	add    $0x10,%esp
c00031eb:	8b 45 08             	mov    0x8(%ebp),%eax
c00031ee:	8b 55 f4             	mov    -0xc(%ebp),%edx
c00031f1:	89 50 0c             	mov    %edx,0xc(%eax)
c00031f4:	8b 45 08             	mov    0x8(%ebp),%eax
c00031f7:	c7 40 10 01 00 00 00 	movl   $0x1,0x10(%eax)
c00031fe:	83 ec 0c             	sub    $0xc,%esp
c0003201:	ff 75 f0             	pushl  -0x10(%ebp)
c0003204:	e8 67 ed ff ff       	call   c0001f70 <set_intr_status>
c0003209:	83 c4 10             	add    $0x10,%esp
c000320c:	90                   	nop
c000320d:	8b 5d fc             	mov    -0x4(%ebp),%ebx
c0003210:	c9                   	leave  
c0003211:	c3                   	ret    

c0003212 <unlock>:
c0003212:	55                   	push   %ebp
c0003213:	89 e5                	mov    %esp,%ebp
c0003215:	53                   	push   %ebx
c0003216:	83 ec 14             	sub    $0x14,%esp
c0003219:	e8 f1 e3 ff ff       	call   c000160f <__x86.get_pc_thunk.bx>
c000321e:	81 c3 e2 1d 00 00    	add    $0x1de2,%ebx
c0003224:	e8 89 ed ff ff       	call   c0001fb2 <disable_intr>
c0003229:	89 45 f4             	mov    %eax,-0xc(%ebp)
c000322c:	8b 45 08             	mov    0x8(%ebp),%eax
c000322f:	8b 40 0c             	mov    0xc(%eax),%eax
c0003232:	85 c0                	test   %eax,%eax
c0003234:	74 0a                	je     c0003240 <unlock+0x2e>
c0003236:	8b 45 08             	mov    0x8(%ebp),%eax
c0003239:	8b 40 10             	mov    0x10(%eax),%eax
c000323c:	85 c0                	test   %eax,%eax
c000323e:	7f 1b                	jg     c000325b <unlock+0x49>
c0003240:	83 ec 04             	sub    $0x4,%esp
c0003243:	8d 83 20 e6 ff ff    	lea    -0x19e0(%ebx),%eax
c0003249:	50                   	push   %eax
c000324a:	6a 5b                	push   $0x5b
c000324c:	8d 83 06 e5 ff ff    	lea    -0x1afa(%ebx),%eax
c0003252:	50                   	push   %eax
c0003253:	e8 80 ed ff ff       	call   c0001fd8 <panic_spin>
c0003258:	83 c4 10             	add    $0x10,%esp
c000325b:	8b 45 08             	mov    0x8(%ebp),%eax
c000325e:	8b 40 10             	mov    0x10(%eax),%eax
c0003261:	83 f8 01             	cmp    $0x1,%eax
c0003264:	7e 11                	jle    c0003277 <unlock+0x65>
c0003266:	8b 45 08             	mov    0x8(%ebp),%eax
c0003269:	8b 40 10             	mov    0x10(%eax),%eax
c000326c:	8d 50 ff             	lea    -0x1(%eax),%edx
c000326f:	8b 45 08             	mov    0x8(%ebp),%eax
c0003272:	89 50 10             	mov    %edx,0x10(%eax)
c0003275:	eb 23                	jmp    c000329a <unlock+0x88>
c0003277:	8b 45 08             	mov    0x8(%ebp),%eax
c000327a:	83 ec 0c             	sub    $0xc,%esp
c000327d:	50                   	push   %eax
c000327e:	e8 a1 fc ff ff       	call   c0002f24 <V>
c0003283:	83 c4 10             	add    $0x10,%esp
c0003286:	8b 45 08             	mov    0x8(%ebp),%eax
c0003289:	c7 40 0c 00 00 00 00 	movl   $0x0,0xc(%eax)
c0003290:	8b 45 08             	mov    0x8(%ebp),%eax
c0003293:	c7 40 10 00 00 00 00 	movl   $0x0,0x10(%eax)
c000329a:	83 ec 0c             	sub    $0xc,%esp
c000329d:	ff 75 f4             	pushl  -0xc(%ebp)
c00032a0:	e8 cb ec ff ff       	call   c0001f70 <set_intr_status>
c00032a5:	83 c4 10             	add    $0x10,%esp
c00032a8:	90                   	nop
c00032a9:	8b 5d fc             	mov    -0x4(%ebp),%ebx
c00032ac:	c9                   	leave  
c00032ad:	c3                   	ret    

c00032ae <init_lock>:
c00032ae:	55                   	push   %ebp
c00032af:	89 e5                	mov    %esp,%ebp
c00032b1:	83 ec 08             	sub    $0x8,%esp
c00032b4:	e8 17 ed ff ff       	call   c0001fd0 <__x86.get_pc_thunk.ax>
c00032b9:	05 47 1d 00 00       	add    $0x1d47,%eax
c00032be:	8b 45 08             	mov    0x8(%ebp),%eax
c00032c1:	83 ec 08             	sub    $0x8,%esp
c00032c4:	6a 01                	push   $0x1
c00032c6:	50                   	push   %eax
c00032c7:	e8 1a 00 00 00       	call   c00032e6 <init_sem>
c00032cc:	83 c4 10             	add    $0x10,%esp
c00032cf:	8b 45 08             	mov    0x8(%ebp),%eax
c00032d2:	c7 40 0c 00 00 00 00 	movl   $0x0,0xc(%eax)
c00032d9:	8b 45 08             	mov    0x8(%ebp),%eax
c00032dc:	c7 40 10 00 00 00 00 	movl   $0x0,0x10(%eax)
c00032e3:	90                   	nop
c00032e4:	c9                   	leave  
c00032e5:	c3                   	ret    

c00032e6 <init_sem>:
c00032e6:	55                   	push   %ebp
c00032e7:	89 e5                	mov    %esp,%ebp
c00032e9:	e8 e2 ec ff ff       	call   c0001fd0 <__x86.get_pc_thunk.ax>
c00032ee:	05 12 1d 00 00       	add    $0x1d12,%eax
c00032f3:	8b 45 08             	mov    0x8(%ebp),%eax
c00032f6:	8b 55 0c             	mov    0xc(%ebp),%edx
c00032f9:	89 10                	mov    %edx,(%eax)
c00032fb:	8b 45 08             	mov    0x8(%ebp),%eax
c00032fe:	83 c0 04             	add    $0x4,%eax
c0003301:	50                   	push   %eax
c0003302:	e8 cc fa ff ff       	call   c0002dd3 <INIT_LIST_HEAD>
c0003307:	83 c4 04             	add    $0x4,%esp
c000330a:	90                   	nop
c000330b:	c9                   	leave  
c000330c:	c3                   	ret    
